
bin/ldpc_int8_cst:     file format elf64-littleriscv


Disassembly of section .init:

Disassembly of section .text:

0000000080000420 <process>:
    80000420:	00a00293          	li	t0,10
    80000424:	00000817          	auipc	a6,0x0
    80000428:	2fc80813          	add	a6,a6,764 # 80000720 <posVn>
    8000042c:	89e18f93          	add	t6,gp,-1890 # 800007be <deg_Cns+0xe>
    80000430:	00000893          	li	a7,0
    80000434:	89018e93          	add	t4,gp,-1904 # 800007b0 <deg_Cns>
    80000438:	8f018f13          	add	t5,gp,-1808 # 80000810 <c2v>
    8000043c:	00000e17          	auipc	t3,0x0
    80000440:	2e4e0e13          	add	t3,t3,740 # 80000720 <posVn>
    80000444:	000e8303          	lb	t1,0(t4)
    80000448:	14605863          	blez	t1,80000598 <process+0x178>
    8000044c:	fb010113          	add	sp,sp,-80
    80000450:	04813423          	sd	s0,72(sp)
    80000454:	04913023          	sd	s1,64(sp)
    80000458:	03213c23          	sd	s2,56(sp)
    8000045c:	03313823          	sd	s3,48(sp)
    80000460:	03413423          	sd	s4,40(sp)
    80000464:	03513023          	sd	s5,32(sp)
    80000468:	fff3099b          	addw	s3,t1,-1
    8000046c:	02099993          	sll	s3,s3,0x20
    80000470:	0209d993          	srl	s3,s3,0x20
    80000474:	001e0a13          	add	s4,t3,1
    80000478:	000e0593          	mv	a1,t3
    8000047c:	000f0513          	mv	a0,t5
    80000480:	00010493          	mv	s1,sp
    80000484:	013a0a33          	add	s4,s4,s3
    80000488:	00010913          	mv	s2,sp
    8000048c:	000f0413          	mv	s0,t5
    80000490:	000e0613          	mv	a2,t3
    80000494:	00000393          	li	t2,0
    80000498:	07f00a93          	li	s5,127
    8000049c:	07f00693          	li	a3,127
    800004a0:	00060783          	lb	a5,0(a2)
    800004a4:	00044703          	lbu	a4,0(s0)
    800004a8:	00f807b3          	add	a5,a6,a5
    800004ac:	0687c783          	lbu	a5,104(a5)
    800004b0:	00e7d78b          	ld.subsat	a5,a5,a4
    800004b4:	0ff7f713          	zext.b	a4,a5
    800004b8:	0077571b          	srlw	a4,a4,0x7
    800004bc:	00e3c733          	xor	a4,t2,a4
    800004c0:	0187139b          	sllw	t2,a4,0x18
    800004c4:	00f90023          	sb	a5,0(s2)
    800004c8:	4183d39b          	sraw	t2,t2,0x18
    800004cc:	0117978b          	ld.abs	a5,a5,a7
    800004d0:	00f6a70b          	ld.max	a4,a3,a5
    800004d4:	00eab70b          	ld.min	a4,s5,a4
    800004d8:	01871a9b          	sllw	s5,a4,0x18
    800004dc:	418ada9b          	sraw	s5,s5,0x18
    800004e0:	00d7b78b          	ld.min	a5,a5,a3
    800004e4:	0187969b          	sllw	a3,a5,0x18
    800004e8:	00160613          	add	a2,a2,1
    800004ec:	4186d69b          	sraw	a3,a3,0x18
    800004f0:	00140413          	add	s0,s0,1
    800004f4:	00190913          	add	s2,s2,1
    800004f8:	fb4614e3          	bne	a2,s4,800004a0 <process+0x80>
    800004fc:	00110413          	add	s0,sp,1
    80000500:	00dacab3          	xor	s5,s5,a3
    80000504:	013409b3          	add	s3,s0,s3
    80000508:	0080006f          	j	80000510 <process+0xf0>
    8000050c:	00140413          	add	s0,s0,1
    80000510:	00048703          	lb	a4,0(s1)
    80000514:	02e6878b          	ld.eval	a5,a3,a4
    80000518:	0187979b          	sllw	a5,a5,0x18
    8000051c:	4187d79b          	sraw	a5,a5,0x18
    80000520:	02e3960b          	ld.rsign	a2,t2,a4
    80000524:	0157f7b3          	and	a5,a5,s5
    80000528:	00f6c7b3          	xor	a5,a3,a5
    8000052c:	00f6478b          	ld.nmess	a5,a2,a5
    80000530:	00f50023          	sb	a5,0(a0)
    80000534:	02f7270b          	ld.addsat	a4,a4,a5
    80000538:	00058783          	lb	a5,0(a1)
    8000053c:	00040493          	mv	s1,s0
    80000540:	00150513          	add	a0,a0,1
    80000544:	00f807b3          	add	a5,a6,a5
    80000548:	06e78423          	sb	a4,104(a5)
    8000054c:	00158593          	add	a1,a1,1
    80000550:	fa899ee3          	bne	s3,s0,8000050c <process+0xec>
    80000554:	001e8e93          	add	t4,t4,1
    80000558:	006e0e33          	add	t3,t3,t1
    8000055c:	006f0f33          	add	t5,t5,t1
    80000560:	01fe8e63          	beq	t4,t6,8000057c <process+0x15c>
    80000564:	000e8303          	lb	t1,0(t4)
    80000568:	f06040e3          	bgtz	t1,80000468 <process+0x48>
    8000056c:	001e8e93          	add	t4,t4,1
    80000570:	006e0e33          	add	t3,t3,t1
    80000574:	006f0f33          	add	t5,t5,t1
    80000578:	fffe96e3          	bne	t4,t6,80000564 <process+0x144>
    8000057c:	fff2829b          	addw	t0,t0,-1
    80000580:	02028a63          	beqz	t0,800005b4 <process+0x194>
    80000584:	89018e93          	add	t4,gp,-1904 # 800007b0 <deg_Cns>
    80000588:	8f018f13          	add	t5,gp,-1808 # 80000810 <c2v>
    8000058c:	00000e17          	auipc	t3,0x0
    80000590:	194e0e13          	add	t3,t3,404 # 80000720 <posVn>
    80000594:	fd1ff06f          	j	80000564 <process+0x144>
    80000598:	001e8e93          	add	t4,t4,1
    8000059c:	006e0e33          	add	t3,t3,t1
    800005a0:	006f0f33          	add	t5,t5,t1
    800005a4:	ebfe90e3          	bne	t4,t6,80000444 <process+0x24>
    800005a8:	fff2829b          	addw	t0,t0,-1
    800005ac:	e80294e3          	bnez	t0,80000434 <process+0x14>
    800005b0:	00008067          	ret
    800005b4:	04813403          	ld	s0,72(sp)
    800005b8:	04013483          	ld	s1,64(sp)
    800005bc:	03813903          	ld	s2,56(sp)
    800005c0:	03013983          	ld	s3,48(sp)
    800005c4:	02813a03          	ld	s4,40(sp)
    800005c8:	02013a83          	ld	s5,32(sp)
    800005cc:	05010113          	add	sp,sp,80
    800005d0:	00008067          	ret

Disassembly of section .rodata:

Disassembly of section .eh_frame:

Disassembly of section .data:

Disassembly of section .bss:

Disassembly of section .comment:

Disassembly of section .riscv.attributes:
