
./bin/polar_int8.elf:     file format elf64-littleriscv


Disassembly of section .init:

0000000080000000 <_start>:
    80000000:	00002197          	auipc	gp,0x2
    80000004:	80018193          	addi	gp,gp,-2048 # 80001800 <__global_pointer$>
    80000008:	00100117          	auipc	sp,0x100
    8000000c:	ff810113          	addi	sp,sp,-8 # 80100000 <__stack_top>
    80000010:	00010433          	add	s0,sp,zero
    80000014:	6299                	lui	t0,0x6
    80000016:	3002a073          	csrs	mstatus,t0
    8000001a:	00301073          	fscsr	zero
    8000001e:	f0000053          	fmv.w.x	ft0,zero
    80000022:	f00000d3          	fmv.w.x	ft1,zero
    80000026:	f0000153          	fmv.w.x	ft2,zero
    8000002a:	f00001d3          	fmv.w.x	ft3,zero
    8000002e:	f0000253          	fmv.w.x	ft4,zero
    80000032:	f00002d3          	fmv.w.x	ft5,zero
    80000036:	f0000353          	fmv.w.x	ft6,zero
    8000003a:	f00003d3          	fmv.w.x	ft7,zero
    8000003e:	f0000453          	fmv.w.x	fs0,zero
    80000042:	f00004d3          	fmv.w.x	fs1,zero
    80000046:	f0000553          	fmv.w.x	fa0,zero
    8000004a:	f00005d3          	fmv.w.x	fa1,zero
    8000004e:	f0000653          	fmv.w.x	fa2,zero
    80000052:	f00006d3          	fmv.w.x	fa3,zero
    80000056:	f0000753          	fmv.w.x	fa4,zero
    8000005a:	f00007d3          	fmv.w.x	fa5,zero
    8000005e:	f0000853          	fmv.w.x	fa6,zero
    80000062:	f00008d3          	fmv.w.x	fa7,zero
    80000066:	f0000953          	fmv.w.x	fs2,zero
    8000006a:	f00009d3          	fmv.w.x	fs3,zero
    8000006e:	f0000a53          	fmv.w.x	fs4,zero
    80000072:	f0000ad3          	fmv.w.x	fs5,zero
    80000076:	f0000b53          	fmv.w.x	fs6,zero
    8000007a:	f0000bd3          	fmv.w.x	fs7,zero
    8000007e:	f0000c53          	fmv.w.x	fs8,zero
    80000082:	f0000cd3          	fmv.w.x	fs9,zero
    80000086:	f0000d53          	fmv.w.x	fs10,zero
    8000008a:	f0000dd3          	fmv.w.x	fs11,zero
    8000008e:	f0000e53          	fmv.w.x	ft8,zero
    80000092:	f0000ed3          	fmv.w.x	ft9,zero
    80000096:	f0000f53          	fmv.w.x	ft10,zero
    8000009a:	f0000fd3          	fmv.w.x	ft11,zero
    8000009e:	008000ef          	jal	ra,800000a6 <main>
    800000a2:	00000073          	ecall

Disassembly of section .text:

00000000800000a6 <main>:
    800000a6:	715d                	addi	sp,sp,-80
    800000a8:	fc26                	sd	s1,56(sp)
    800000aa:	00001497          	auipc	s1,0x1
    800000ae:	7ae48493          	addi	s1,s1,1966 # 80001858 <LLR>
    800000b2:	e0a2                	sd	s0,64(sp)
    800000b4:	e486                	sd	ra,72(sp)
    800000b6:	f84a                	sd	s2,48(sp)
    800000b8:	f44e                	sd	s3,40(sp)
    800000ba:	f052                	sd	s4,32(sp)
    800000bc:	ec56                	sd	s5,24(sp)
    800000be:	e85a                	sd	s6,16(sp)
    800000c0:	e45e                	sd	s7,8(sp)
    800000c2:	4401                	li	s0,0
    800000c4:	00000717          	auipc	a4,0x0
    800000c8:	59470713          	addi	a4,a4,1428 # 80000658 <codw_int>
    800000cc:	00002617          	auipc	a2,0x2
    800000d0:	b8c60613          	addi	a2,a2,-1140 # 80001c58 <LLR+0x400>
    800000d4:	87a6                	mv	a5,s1
    800000d6:	6314                	ld	a3,0(a4)
    800000d8:	07a1                	addi	a5,a5,8
    800000da:	0721                	addi	a4,a4,8
    800000dc:	fed7bc23          	sd	a3,-8(a5)
    800000e0:	fec79be3          	bne	a5,a2,800000d6 <main+0x30>
    800000e4:	160000ef          	jal	ra,80000244 <cycles>
    800000e8:	89aa                	mv	s3,a0
    800000ea:	162000ef          	jal	ra,8000024c <insn>
    800000ee:	8a2a                	mv	s4,a0
    800000f0:	00002797          	auipc	a5,0x2
    800000f4:	b6878793          	addi	a5,a5,-1176 # 80001c58 <LLR+0x400>
    800000f8:	00002597          	auipc	a1,0x2
    800000fc:	d6058593          	addi	a1,a1,-672 # 80001e58 <LLR+0x600>
    80000100:	0007c703          	lbu	a4,0(a5)
    80000104:	c007c683          	lbu	a3,-1024(a5)
    80000108:	e007c603          	lbu	a2,-512(a5)
    8000010c:	00c6872b          	pl.f	a4,a3,a2
    80000110:	00e78023          	sb	a4,0(a5)
    80000114:	0785                	addi	a5,a5,1
    80000116:	feb795e3          	bne	a5,a1,80000100 <main+0x5a>
    8000011a:	c5818513          	addi	a0,gp,-936 # 80001458 <PS>
    8000011e:	85818713          	addi	a4,gp,-1960 # 80001058 <decode>
    80000122:	00001697          	auipc	a3,0x1
    80000126:	93668693          	addi	a3,a3,-1738 # 80000a58 <froozen_bits>
    8000012a:	20000613          	li	a2,512
    8000012e:	00002597          	auipc	a1,0x2
    80000132:	b2a58593          	addi	a1,a1,-1238 # 80001c58 <LLR+0x400>
    80000136:	892a                	mv	s2,a0
    80000138:	214000ef          	jal	ra,8000034c <node>
    8000013c:	00002517          	auipc	a0,0x2
    80000140:	91c50513          	addi	a0,a0,-1764 # 80001a58 <LLR+0x200>
    80000144:	874a                	mv	a4,s2
    80000146:	0004c683          	lbu	a3,0(s1)
    8000014a:	2004c603          	lbu	a2,512(s1)
    8000014e:	00074583          	lbu	a1,0(a4)
    80000152:	87a2                	mv	a5,s0
    80000154:	5ec687ab          	pl3_g	a5,a3,a2,a1
    80000158:	40f48023          	sb	a5,1024(s1)
    8000015c:	0187941b          	slliw	s0,a5,0x18
    80000160:	0485                	addi	s1,s1,1
    80000162:	4184541b          	sraiw	s0,s0,0x18
    80000166:	0705                	addi	a4,a4,1
    80000168:	fca49fe3          	bne	s1,a0,80000146 <main+0xa0>
    8000016c:	00001697          	auipc	a3,0x1
    80000170:	aec68693          	addi	a3,a3,-1300 # 80000c58 <froozen_bits+0x200>
    80000174:	a5818713          	addi	a4,gp,-1448 # 80001258 <decode+0x200>
    80000178:	20000613          	li	a2,512
    8000017c:	00002597          	auipc	a1,0x2
    80000180:	adc58593          	addi	a1,a1,-1316 # 80001c58 <LLR+0x400>
    80000184:	e5818513          	addi	a0,gp,-424 # 80001658 <PS+0x200>
    80000188:	1c4000ef          	jal	ra,8000034c <node>
    8000018c:	e5818693          	addi	a3,gp,-424 # 80001658 <PS+0x200>
    80000190:	00093703          	ld	a4,0(s2)
    80000194:	20093783          	ld	a5,512(s2)
    80000198:	0921                	addi	s2,s2,8
    8000019a:	8fb9                	xor	a5,a5,a4
    8000019c:	fef93c23          	sd	a5,-8(s2)
    800001a0:	fed918e3          	bne	s2,a3,80000190 <main+0xea>
    800001a4:	0a0000ef          	jal	ra,80000244 <cycles>
    800001a8:	84aa                	mv	s1,a0
    800001aa:	0a2000ef          	jal	ra,8000024c <insn>
    800001ae:	413485b3          	sub	a1,s1,s3
    800001b2:	41450a33          	sub	s4,a0,s4
    800001b6:	00000517          	auipc	a0,0x0
    800001ba:	44250513          	addi	a0,a0,1090 # 800005f8 <test_plg+0x44>
    800001be:	096000ef          	jal	ra,80000254 <printf>
    800001c2:	85d2                	mv	a1,s4
    800001c4:	00000517          	auipc	a0,0x0
    800001c8:	44450513          	addi	a0,a0,1092 # 80000608 <test_plg+0x54>
    800001cc:	088000ef          	jal	ra,80000254 <printf>
    800001d0:	00001497          	auipc	s1,0x1
    800001d4:	88848493          	addi	s1,s1,-1912 # 80000a58 <froozen_bits>
    800001d8:	85818913          	addi	s2,gp,-1960 # 80001058 <decode>
    800001dc:	4401                	li	s0,0
    800001de:	4b81                	li	s7,0
    800001e0:	4981                	li	s3,0
    800001e2:	e5818a93          	addi	s5,gp,-424 # 80001658 <PS+0x200>
    800001e6:	00000b17          	auipc	s6,0x0
    800001ea:	432b0b13          	addi	s6,s6,1074 # 80000618 <test_plg+0x64>
    800001ee:	40000a13          	li	s4,1024
    800001f2:	0004c783          	lbu	a5,0(s1)
    800001f6:	013a8733          	add	a4,s5,s3
    800001fa:	0485                	addi	s1,s1,1
    800001fc:	ef89                	bnez	a5,80000216 <main+0x170>
    800001fe:	00094783          	lbu	a5,0(s2)
    80000202:	80074703          	lbu	a4,-2048(a4)
    80000206:	85a2                	mv	a1,s0
    80000208:	855a                	mv	a0,s6
    8000020a:	2985                	addiw	s3,s3,1
    8000020c:	00f70563          	beq	a4,a5,80000216 <main+0x170>
    80000210:	2b85                	addiw	s7,s7,1
    80000212:	042000ef          	jal	ra,80000254 <printf>
    80000216:	2405                	addiw	s0,s0,1
    80000218:	0905                	addi	s2,s2,1
    8000021a:	fd441ce3          	bne	s0,s4,800001f2 <main+0x14c>
    8000021e:	85de                	mv	a1,s7
    80000220:	00000517          	auipc	a0,0x0
    80000224:	40050513          	addi	a0,a0,1024 # 80000620 <test_plg+0x6c>
    80000228:	02c000ef          	jal	ra,80000254 <printf>
    8000022c:	60a6                	ld	ra,72(sp)
    8000022e:	6406                	ld	s0,64(sp)
    80000230:	74e2                	ld	s1,56(sp)
    80000232:	7942                	ld	s2,48(sp)
    80000234:	79a2                	ld	s3,40(sp)
    80000236:	7a02                	ld	s4,32(sp)
    80000238:	6ae2                	ld	s5,24(sp)
    8000023a:	6b42                	ld	s6,16(sp)
    8000023c:	6ba2                	ld	s7,8(sp)
    8000023e:	4501                	li	a0,0
    80000240:	6161                	addi	sp,sp,80
    80000242:	8082                	ret

0000000080000244 <cycles>:
    80000244:	c0002573          	rdcycle	a0
    80000248:	2501                	sext.w	a0,a0
    8000024a:	8082                	ret

000000008000024c <insn>:
    8000024c:	c0202573          	rdinstret	a0
    80000250:	2501                	sext.w	a0,a0
    80000252:	8082                	ret

0000000080000254 <printf>:
    80000254:	7159                	addi	sp,sp,-112
    80000256:	00054303          	lbu	t1,0(a0)
    8000025a:	ecbe                	sd	a5,88(sp)
    8000025c:	183c                	addi	a5,sp,56
    8000025e:	fc2e                	sd	a1,56(sp)
    80000260:	e0b2                	sd	a2,64(sp)
    80000262:	e4b6                	sd	a3,72(sp)
    80000264:	e8ba                	sd	a4,80(sp)
    80000266:	f0c2                	sd	a6,96(sp)
    80000268:	f4c6                	sd	a7,104(sp)
    8000026a:	e43e                	sd	a5,8(sp)
    8000026c:	02030963          	beqz	t1,8000029e <printf+0x4a>
    80000270:	4681                	li	a3,0
    80000272:	02500e13          	li	t3,37
    80000276:	10000eb7          	lui	t4,0x10000
    8000027a:	06300593          	li	a1,99
    8000027e:	07300813          	li	a6,115
    80000282:	06400893          	li	a7,100
    80000286:	01c30e63          	beq	t1,t3,800002a2 <printf+0x4e>
    8000028a:	2301                	sext.w	t1,t1
    8000028c:	006ea023          	sw	t1,0(t4) # 10000000 <_start-0x70000000>
    80000290:	2685                	addiw	a3,a3,1
    80000292:	00d507b3          	add	a5,a0,a3
    80000296:	0007c303          	lbu	t1,0(a5)
    8000029a:	fe0316e3          	bnez	t1,80000286 <printf+0x32>
    8000029e:	6165                	addi	sp,sp,112
    800002a0:	8082                	ret
    800002a2:	0016871b          	addiw	a4,a3,1
    800002a6:	a029                	j	800002b0 <printf+0x5c>
    800002a8:	03078663          	beq	a5,a6,800002d4 <printf+0x80>
    800002ac:	05178463          	beq	a5,a7,800002f4 <printf+0xa0>
    800002b0:	00e507b3          	add	a5,a0,a4
    800002b4:	0007c783          	lbu	a5,0(a5)
    800002b8:	0007069b          	sext.w	a3,a4
    800002bc:	0705                	addi	a4,a4,1
    800002be:	dbe9                	beqz	a5,80000290 <printf+0x3c>
    800002c0:	feb794e3          	bne	a5,a1,800002a8 <printf+0x54>
    800002c4:	67a2                	ld	a5,8(sp)
    800002c6:	4398                	lw	a4,0(a5)
    800002c8:	07a1                	addi	a5,a5,8
    800002ca:	e43e                	sd	a5,8(sp)
    800002cc:	100007b7          	lui	a5,0x10000
    800002d0:	c398                	sw	a4,0(a5)
    800002d2:	bf7d                	j	80000290 <printf+0x3c>
    800002d4:	67a2                	ld	a5,8(sp)
    800002d6:	6398                	ld	a4,0(a5)
    800002d8:	07a1                	addi	a5,a5,8 # 10000008 <_start-0x6ffffff8>
    800002da:	e43e                	sd	a5,8(sp)
    800002dc:	00074783          	lbu	a5,0(a4)
    800002e0:	dbc5                	beqz	a5,80000290 <printf+0x3c>
    800002e2:	10000637          	lui	a2,0x10000
    800002e6:	2781                	sext.w	a5,a5
    800002e8:	0705                	addi	a4,a4,1
    800002ea:	c21c                	sw	a5,0(a2)
    800002ec:	00074783          	lbu	a5,0(a4)
    800002f0:	fbfd                	bnez	a5,800002e6 <printf+0x92>
    800002f2:	bf79                	j	80000290 <printf+0x3c>
    800002f4:	67a2                	ld	a5,8(sp)
    800002f6:	4398                	lw	a4,0(a5)
    800002f8:	07a1                	addi	a5,a5,8
    800002fa:	e43e                	sd	a5,8(sp)
    800002fc:	02074c63          	bltz	a4,80000334 <printf+0xe0>
    80000300:	01010f13          	addi	t5,sp,16
    80000304:	87fa                	mv	a5,t5
    80000306:	4329                	li	t1,10
    80000308:	e319                	bnez	a4,8000030e <printf+0xba>
    8000030a:	01e79c63          	bne	a5,t5,80000322 <printf+0xce>
    8000030e:	0267663b          	remw	a2,a4,t1
    80000312:	0785                	addi	a5,a5,1
    80000314:	0306061b          	addiw	a2,a2,48 # 10000030 <_start-0x6fffffd0>
    80000318:	0267473b          	divw	a4,a4,t1
    8000031c:	fec78fa3          	sb	a2,-1(a5)
    80000320:	b7e5                	j	80000308 <printf+0xb4>
    80000322:	10000637          	lui	a2,0x10000
    80000326:	fff7c703          	lbu	a4,-1(a5)
    8000032a:	17fd                	addi	a5,a5,-1
    8000032c:	c218                	sw	a4,0(a2)
    8000032e:	ffe79ce3          	bne	a5,t5,80000326 <printf+0xd2>
    80000332:	bfb9                	j	80000290 <printf+0x3c>
    80000334:	100007b7          	lui	a5,0x10000
    80000338:	02d00613          	li	a2,45
    8000033c:	01010f13          	addi	t5,sp,16
    80000340:	c390                	sw	a2,0(a5)
    80000342:	40e0073b          	negw	a4,a4
    80000346:	87fa                	mv	a5,t5
    80000348:	4329                	li	t1,10
    8000034a:	bf7d                	j	80000308 <printf+0xb4>

000000008000034c <node>:
    8000034c:	711d                	addi	sp,sp,-96
    8000034e:	e8a2                	sd	s0,80(sp)
    80000350:	e0ca                	sd	s2,64(sp)
    80000352:	fc4e                	sd	s3,56(sp)
    80000354:	f852                	sd	s4,48(sp)
    80000356:	f05a                	sd	s6,32(sp)
    80000358:	e862                	sd	s8,16(sp)
    8000035a:	e466                	sd	s9,8(sp)
    8000035c:	ec86                	sd	ra,88(sp)
    8000035e:	e4a6                	sd	s1,72(sp)
    80000360:	f456                	sd	s5,40(sp)
    80000362:	ec5e                	sd	s7,24(sp)
    80000364:	892a                	mv	s2,a0
    80000366:	89ae                	mv	s3,a1
    80000368:	8a32                	mv	s4,a2
    8000036a:	8c36                	mv	s8,a3
    8000036c:	8cba                	mv	s9,a4
    8000036e:	4401                	li	s0,0
    80000370:	4b05                	li	s6,1
    80000372:	01fa5a9b          	srliw	s5,s4,0x1f
    80000376:	014a8abb          	addw	s5,s5,s4
    8000037a:	401ada9b          	sraiw	s5,s5,0x1
    8000037e:	1f6a0763          	beq	s4,s6,8000056c <node+0x220>
    80000382:	000a849b          	sext.w	s1,s5
    80000386:	214b5a63          	bge	s6,s4,8000059a <node+0x24e>
    8000038a:	01498b33          	add	s6,s3,s4
    8000038e:	88da                	mv	a7,s6
    80000390:	4801                	li	a6,0
    80000392:	01048333          	add	t1,s1,a6
    80000396:	01098633          	add	a2,s3,a6
    8000039a:	934e                	add	t1,t1,s3
    8000039c:	0008c783          	lbu	a5,0(a7)
    800003a0:	00064603          	lbu	a2,0(a2) # 10000000 <_start-0x70000000>
    800003a4:	00034583          	lbu	a1,0(t1)
    800003a8:	00b607ab          	pl.f	a5,a2,a1
    800003ac:	0805                	addi	a6,a6,1
    800003ae:	00f88023          	sb	a5,0(a7)
    800003b2:	0008079b          	sext.w	a5,a6
    800003b6:	0885                	addi	a7,a7,1
    800003b8:	fc97cde3          	blt	a5,s1,80000392 <node+0x46>
    800003bc:	8766                	mv	a4,s9
    800003be:	86e2                	mv	a3,s8
    800003c0:	8626                	mv	a2,s1
    800003c2:	85da                	mv	a1,s6
    800003c4:	854a                	mv	a0,s2
    800003c6:	f87ff0ef          	jal	ra,8000034c <node>
    800003ca:	00990bb3          	add	s7,s2,s1
    800003ce:	009c8733          	add	a4,s9,s1
    800003d2:	009c06b3          	add	a3,s8,s1
    800003d6:	4781                	li	a5,0
    800003d8:	00f48833          	add	a6,s1,a5
    800003dc:	984e                	add	a6,a6,s3
    800003de:	00f98633          	add	a2,s3,a5
    800003e2:	00f90e33          	add	t3,s2,a5
    800003e6:	00084303          	lbu	t1,0(a6)
    800003ea:	00064883          	lbu	a7,0(a2)
    800003ee:	000e4e03          	lbu	t3,0(t3)
    800003f2:	8822                	mv	a6,s0
    800003f4:	e668882b          	pl3_g	a6,a7,t1,t3
    800003f8:	00fb08b3          	add	a7,s6,a5
    800003fc:	0785                	addi	a5,a5,1 # 10000001 <_start-0x6fffffff>
    800003fe:	01088023          	sb	a6,0(a7)
    80000402:	0188141b          	slliw	s0,a6,0x18
    80000406:	0007889b          	sext.w	a7,a5
    8000040a:	4184541b          	sraiw	s0,s0,0x18
    8000040e:	fc98c5e3          	blt	a7,s1,800003d8 <node+0x8c>
    80000412:	8626                	mv	a2,s1
    80000414:	85da                	mv	a1,s6
    80000416:	855e                	mv	a0,s7
    80000418:	f35ff0ef          	jal	ra,8000034c <node>
    8000041c:	47bd                	li	a5,15
    8000041e:	0147d663          	bge	a5,s4,8000042a <node+0xde>
    80000422:	017967b3          	or	a5,s2,s7
    80000426:	8b9d                	andi	a5,a5,7
    80000428:	cf9d                	beqz	a5,80000466 <node+0x11a>
    8000042a:	874a                	mv	a4,s2
    8000042c:	4781                	li	a5,0
    8000042e:	00fb86b3          	add	a3,s7,a5
    80000432:	00074583          	lbu	a1,0(a4)
    80000436:	0006c683          	lbu	a3,0(a3)
    8000043a:	0785                	addi	a5,a5,1
    8000043c:	0007861b          	sext.w	a2,a5
    80000440:	8ead                	xor	a3,a3,a1
    80000442:	00d70023          	sb	a3,0(a4)
    80000446:	0705                	addi	a4,a4,1
    80000448:	fe9643e3          	blt	a2,s1,8000042e <node+0xe2>
    8000044c:	60e6                	ld	ra,88(sp)
    8000044e:	6446                	ld	s0,80(sp)
    80000450:	64a6                	ld	s1,72(sp)
    80000452:	6906                	ld	s2,64(sp)
    80000454:	79e2                	ld	s3,56(sp)
    80000456:	7a42                	ld	s4,48(sp)
    80000458:	7aa2                	ld	s5,40(sp)
    8000045a:	7b02                	ld	s6,32(sp)
    8000045c:	6be2                	ld	s7,24(sp)
    8000045e:	6c42                	ld	s8,16(sp)
    80000460:	6ca2                	ld	s9,8(sp)
    80000462:	6125                	addi	sp,sp,96
    80000464:	8082                	ret
    80000466:	4705                	li	a4,1
    80000468:	4785                	li	a5,1
    8000046a:	13474363          	blt	a4,s4,80000590 <node+0x244>
    8000046e:	0037d61b          	srliw	a2,a5,0x3
    80000472:	060e                	slli	a2,a2,0x3
    80000474:	0007859b          	sext.w	a1,a5
    80000478:	964a                	add	a2,a2,s2
    8000047a:	87ca                	mv	a5,s2
    8000047c:	000bb703          	ld	a4,0(s7)
    80000480:	6394                	ld	a3,0(a5)
    80000482:	07a1                	addi	a5,a5,8
    80000484:	0ba1                	addi	s7,s7,8
    80000486:	8f35                	xor	a4,a4,a3
    80000488:	fee7bc23          	sd	a4,-8(a5)
    8000048c:	fec798e3          	bne	a5,a2,8000047c <node+0x130>
    80000490:	ff85f713          	andi	a4,a1,-8
    80000494:	0075f693          	andi	a3,a1,7
    80000498:	87ba                	mv	a5,a4
    8000049a:	dacd                	beqz	a3,8000044c <node+0x100>
    8000049c:	1702                	slli	a4,a4,0x20
    8000049e:	9301                	srli	a4,a4,0x20
    800004a0:	00fa86bb          	addw	a3,s5,a5
    800004a4:	974a                	add	a4,a4,s2
    800004a6:	96ca                	add	a3,a3,s2
    800004a8:	0006c583          	lbu	a1,0(a3)
    800004ac:	00074503          	lbu	a0,0(a4)
    800004b0:	0017861b          	addiw	a2,a5,1
    800004b4:	8da9                	xor	a1,a1,a0
    800004b6:	00b70023          	sb	a1,0(a4)
    800004ba:	f89659e3          	bge	a2,s1,8000044c <node+0x100>
    800004be:	015606bb          	addw	a3,a2,s5
    800004c2:	96ca                	add	a3,a3,s2
    800004c4:	964a                	add	a2,a2,s2
    800004c6:	0006c583          	lbu	a1,0(a3)
    800004ca:	00064503          	lbu	a0,0(a2)
    800004ce:	0027869b          	addiw	a3,a5,2
    800004d2:	8da9                	xor	a1,a1,a0
    800004d4:	00b60023          	sb	a1,0(a2)
    800004d8:	f696dae3          	bge	a3,s1,8000044c <node+0x100>
    800004dc:	00da873b          	addw	a4,s5,a3
    800004e0:	974a                	add	a4,a4,s2
    800004e2:	96ca                	add	a3,a3,s2
    800004e4:	00074583          	lbu	a1,0(a4)
    800004e8:	0006c503          	lbu	a0,0(a3)
    800004ec:	0037861b          	addiw	a2,a5,3
    800004f0:	8da9                	xor	a1,a1,a0
    800004f2:	00b68023          	sb	a1,0(a3)
    800004f6:	f4965be3          	bge	a2,s1,8000044c <node+0x100>
    800004fa:	00ca873b          	addw	a4,s5,a2
    800004fe:	974a                	add	a4,a4,s2
    80000500:	964a                	add	a2,a2,s2
    80000502:	00074583          	lbu	a1,0(a4)
    80000506:	00064503          	lbu	a0,0(a2)
    8000050a:	0047869b          	addiw	a3,a5,4
    8000050e:	8da9                	xor	a1,a1,a0
    80000510:	00b60023          	sb	a1,0(a2)
    80000514:	f296dce3          	bge	a3,s1,8000044c <node+0x100>
    80000518:	00da873b          	addw	a4,s5,a3
    8000051c:	974a                	add	a4,a4,s2
    8000051e:	96ca                	add	a3,a3,s2
    80000520:	00074583          	lbu	a1,0(a4)
    80000524:	0006c503          	lbu	a0,0(a3)
    80000528:	0057861b          	addiw	a2,a5,5
    8000052c:	8da9                	xor	a1,a1,a0
    8000052e:	00b68023          	sb	a1,0(a3)
    80000532:	f0965de3          	bge	a2,s1,8000044c <node+0x100>
    80000536:	00ca873b          	addw	a4,s5,a2
    8000053a:	974a                	add	a4,a4,s2
    8000053c:	964a                	add	a2,a2,s2
    8000053e:	00074683          	lbu	a3,0(a4)
    80000542:	00064583          	lbu	a1,0(a2)
    80000546:	0067871b          	addiw	a4,a5,6
    8000054a:	8ead                	xor	a3,a3,a1
    8000054c:	00d60023          	sb	a3,0(a2)
    80000550:	ee975ee3          	bge	a4,s1,8000044c <node+0x100>
    80000554:	00ea87bb          	addw	a5,s5,a4
    80000558:	97ca                	add	a5,a5,s2
    8000055a:	974a                	add	a4,a4,s2
    8000055c:	0007c783          	lbu	a5,0(a5)
    80000560:	00074683          	lbu	a3,0(a4)
    80000564:	8fb5                	xor	a5,a5,a3
    80000566:	00f70023          	sb	a5,0(a4)
    8000056a:	b5cd                	j	8000044c <node+0x100>
    8000056c:	00094783          	lbu	a5,0(s2)
    80000570:	0009c703          	lbu	a4,0(s3)
    80000574:	000c4683          	lbu	a3,0(s8)
    80000578:	00d717ab          	pl.r	a5,a4,a3
    8000057c:	00f90023          	sb	a5,0(s2)
    80000580:	000c4783          	lbu	a5,0(s8)
    80000584:	eb81                	bnez	a5,80000594 <node+0x248>
    80000586:	00090783          	lb	a5,0(s2)
    8000058a:	00fc8023          	sb	a5,0(s9)
    8000058e:	bd7d                	j	8000044c <node+0x100>
    80000590:	87d6                	mv	a5,s5
    80000592:	bdf1                	j	8000046e <node+0x122>
    80000594:	000c8023          	sb	zero,0(s9)
    80000598:	bd55                	j	8000044c <node+0x100>
    8000059a:	99d2                	add	s3,s3,s4
    8000059c:	8766                	mv	a4,s9
    8000059e:	86e2                	mv	a3,s8
    800005a0:	854a                	mv	a0,s2
    800005a2:	8626                	mv	a2,s1
    800005a4:	85ce                	mv	a1,s3
    800005a6:	da7ff0ef          	jal	ra,8000034c <node>
    800005aa:	9ca6                	add	s9,s9,s1
    800005ac:	9c26                	add	s8,s8,s1
    800005ae:	9926                	add	s2,s2,s1
    800005b0:	8a26                	mv	s4,s1
    800005b2:	b3c1                	j	80000372 <node+0x26>

00000000800005b4 <test_plg>:
    800005b4:	87aa                	mv	a5,a0
    800005b6:	86b2                	mv	a3,a2
    800005b8:	4701                	li	a4,0
    800005ba:	56c5872b          	pl3_g	a4,a1,a2,a0
    800005be:	0187171b          	slliw	a4,a4,0x18
    800005c2:	862e                	mv	a2,a1
    800005c4:	00000517          	auipc	a0,0x0
    800005c8:	01450513          	addi	a0,a0,20 # 800005d8 <test_plg+0x24>
    800005cc:	4187571b          	sraiw	a4,a4,0x18
    800005d0:	85be                	mv	a1,a5
    800005d2:	b149                	j	80000254 <printf>
