
./bin/hello.elf:     file format elf64-littleriscv


Disassembly of section .init:

0000000080000000 <_start>:
    80000000:	00001197          	auipc	gp,0x1
    80000004:	d7818193          	addi	gp,gp,-648 # 80000d78 <__global_pointer$>
    80000008:	00100117          	auipc	sp,0x100
    8000000c:	ff810113          	addi	sp,sp,-8 # 80100000 <__stack_top>
    80000010:	00010433          	add	s0,sp,zero
    80000014:	6299                	lui	t0,0x6
    80000016:	3002a073          	csrs	mstatus,t0
    8000001a:	00301073          	fscsr	zero
    8000001e:	f0000053          	fmv.w.x	ft0,zero
    80000022:	f00000d3          	fmv.w.x	ft1,zero
    80000026:	f0000153          	fmv.w.x	ft2,zero
    8000002a:	f00001d3          	fmv.w.x	ft3,zero
    8000002e:	f0000253          	fmv.w.x	ft4,zero
    80000032:	f00002d3          	fmv.w.x	ft5,zero
    80000036:	f0000353          	fmv.w.x	ft6,zero
    8000003a:	f00003d3          	fmv.w.x	ft7,zero
    8000003e:	f0000453          	fmv.w.x	fs0,zero
    80000042:	f00004d3          	fmv.w.x	fs1,zero
    80000046:	f0000553          	fmv.w.x	fa0,zero
    8000004a:	f00005d3          	fmv.w.x	fa1,zero
    8000004e:	f0000653          	fmv.w.x	fa2,zero
    80000052:	f00006d3          	fmv.w.x	fa3,zero
    80000056:	f0000753          	fmv.w.x	fa4,zero
    8000005a:	f00007d3          	fmv.w.x	fa5,zero
    8000005e:	f0000853          	fmv.w.x	fa6,zero
    80000062:	f00008d3          	fmv.w.x	fa7,zero
    80000066:	f0000953          	fmv.w.x	fs2,zero
    8000006a:	f00009d3          	fmv.w.x	fs3,zero
    8000006e:	f0000a53          	fmv.w.x	fs4,zero
    80000072:	f0000ad3          	fmv.w.x	fs5,zero
    80000076:	f0000b53          	fmv.w.x	fs6,zero
    8000007a:	f0000bd3          	fmv.w.x	fs7,zero
    8000007e:	f0000c53          	fmv.w.x	fs8,zero
    80000082:	f0000cd3          	fmv.w.x	fs9,zero
    80000086:	f0000d53          	fmv.w.x	fs10,zero
    8000008a:	f0000dd3          	fmv.w.x	fs11,zero
    8000008e:	f0000e53          	fmv.w.x	ft8,zero
    80000092:	f0000ed3          	fmv.w.x	ft9,zero
    80000096:	f0000f53          	fmv.w.x	ft10,zero
    8000009a:	f0000fd3          	fmv.w.x	ft11,zero
    8000009e:	0a8000ef          	jal	ra,80000146 <main>
    800000a2:	00000073          	ecall

Disassembly of section .text:

00000000800000a6 <template>:
    800000a6:	7179                	addi	sp,sp,-48
    800000a8:	f422                	sd	s0,40(sp)
    800000aa:	1800                	addi	s0,sp,48
    800000ac:	87aa                	mv	a5,a0
    800000ae:	872e                	mv	a4,a1
    800000b0:	fcf42e23          	sw	a5,-36(s0)
    800000b4:	87ba                	mv	a5,a4
    800000b6:	fcf42c23          	sw	a5,-40(s0)
    800000ba:	fdc42783          	lw	a5,-36(s0)
    800000be:	fd842703          	lw	a4,-40(s0)
    800000c2:	00e7878b          	ld.sign	a5,a5,a4
    800000c6:	fef42623          	sw	a5,-20(s0)
    800000ca:	fec42783          	lw	a5,-20(s0)
    800000ce:	853e                	mv	a0,a5
    800000d0:	7422                	ld	s0,40(sp)
    800000d2:	6145                	addi	sp,sp,48
    800000d4:	8082                	ret

00000000800000d6 <fmsub>:
    800000d6:	7179                	addi	sp,sp,-48
    800000d8:	f422                	sd	s0,40(sp)
    800000da:	1800                	addi	s0,sp,48
    800000dc:	fca42e27          	fsw	fa0,-36(s0)
    800000e0:	fcb42c27          	fsw	fa1,-40(s0)
    800000e4:	fcc42a27          	fsw	fa2,-44(s0)
    800000e8:	fdc42787          	flw	fa5,-36(s0)
    800000ec:	fd842707          	flw	fa4,-40(s0)
    800000f0:	fd442687          	flw	fa3,-44(s0)
    800000f4:	68e7f7c7          	fmsub.s	fa5,fa5,fa4,fa3
    800000f8:	fef42627          	fsw	fa5,-20(s0)
    800000fc:	fec42787          	flw	fa5,-20(s0)
    80000100:	20f78553          	fmv.s	fa0,fa5
    80000104:	7422                	ld	s0,40(sp)
    80000106:	6145                	addi	sp,sp,48
    80000108:	8082                	ret

000000008000010a <ld_minmax>:
    8000010a:	7179                	addi	sp,sp,-48
    8000010c:	f422                	sd	s0,40(sp)
    8000010e:	1800                	addi	s0,sp,48
    80000110:	87aa                	mv	a5,a0
    80000112:	86ae                	mv	a3,a1
    80000114:	8732                	mv	a4,a2
    80000116:	fcf42e23          	sw	a5,-36(s0)
    8000011a:	87b6                	mv	a5,a3
    8000011c:	fcf42c23          	sw	a5,-40(s0)
    80000120:	87ba                	mv	a5,a4
    80000122:	fcf42a23          	sw	a5,-44(s0)
    80000126:	fdc42783          	lw	a5,-36(s0)
    8000012a:	fd842703          	lw	a4,-40(s0)
    8000012e:	fd442683          	lw	a3,-44(s0)
    80000132:	6ee7978b          	ld3_minmax	a5,a5,a4,# internal error, undefined modifier (r)
    80000136:	fef42623          	sw	a5,-20(s0)
    8000013a:	fec42783          	lw	a5,-20(s0)
    8000013e:	853e                	mv	a0,a5
    80000140:	7422                	ld	s0,40(sp)
    80000142:	6145                	addi	sp,sp,48
    80000144:	8082                	ret

0000000080000146 <main>:
    80000146:	7179                	addi	sp,sp,-48
    80000148:	f406                	sd	ra,40(sp)
    8000014a:	f022                	sd	s0,32(sp)
    8000014c:	1800                	addi	s0,sp,48
    8000014e:	67f1                	lui	a5,0x1c
    80000150:	20078593          	addi	a1,a5,512 # 1c200 <_start-0x7ffe3e00>
    80000154:	02faf7b7          	lui	a5,0x2faf
    80000158:	08078513          	addi	a0,a5,128 # 2faf080 <_start-0x7d050f80>
    8000015c:	152000ef          	jal	ra,800002ae <init_uart>
    80000160:	00000797          	auipc	a5,0x0
    80000164:	3d078793          	addi	a5,a5,976 # 80000530 <print_uart_byte+0x40>
    80000168:	0007a687          	flw	fa3,0(a5)
    8000016c:	00000797          	auipc	a5,0x0
    80000170:	3c478793          	addi	a5,a5,964 # 80000530 <print_uart_byte+0x40>
    80000174:	0007a707          	flw	fa4,0(a5)
    80000178:	00000797          	auipc	a5,0x0
    8000017c:	3b878793          	addi	a5,a5,952 # 80000530 <print_uart_byte+0x40>
    80000180:	0007a787          	flw	fa5,0(a5)
    80000184:	20d68653          	fmv.s	fa2,fa3
    80000188:	20e705d3          	fmv.s	fa1,fa4
    8000018c:	20f78553          	fmv.s	fa0,fa5
    80000190:	f47ff0ef          	jal	ra,800000d6 <fmsub>
    80000194:	fea42627          	fsw	fa0,-20(s0)
    80000198:	fec42787          	flw	fa5,-20(s0)
    8000019c:	c01797d3          	fcvt.wu.s	a5,fa5,rtz
    800001a0:	0ff7f793          	zext.b	a5,a5
    800001a4:	853e                	mv	a0,a5
    800001a6:	34a000ef          	jal	ra,800004f0 <print_uart_byte>
    800001aa:	4785                	li	a5,1
    800001ac:	fef42423          	sw	a5,-24(s0)
    800001b0:	4789                	li	a5,2
    800001b2:	fef42223          	sw	a5,-28(s0)
    800001b6:	478d                	li	a5,3
    800001b8:	fef42023          	sw	a5,-32(s0)
    800001bc:	fe442703          	lw	a4,-28(s0)
    800001c0:	fe842783          	lw	a5,-24(s0)
    800001c4:	85ba                	mv	a1,a4
    800001c6:	853e                	mv	a0,a5
    800001c8:	edfff0ef          	jal	ra,800000a6 <template>
    800001cc:	87aa                	mv	a5,a0
    800001ce:	fcf42e23          	sw	a5,-36(s0)
    800001d2:	fdc42783          	lw	a5,-36(s0)
    800001d6:	0ff7f793          	zext.b	a5,a5
    800001da:	853e                	mv	a0,a5
    800001dc:	314000ef          	jal	ra,800004f0 <print_uart_byte>
    800001e0:	fe042683          	lw	a3,-32(s0)
    800001e4:	fe442703          	lw	a4,-28(s0)
    800001e8:	fe842783          	lw	a5,-24(s0)
    800001ec:	8636                	mv	a2,a3
    800001ee:	85ba                	mv	a1,a4
    800001f0:	853e                	mv	a0,a5
    800001f2:	f19ff0ef          	jal	ra,8000010a <ld_minmax>
    800001f6:	87aa                	mv	a5,a0
    800001f8:	fcf42e23          	sw	a5,-36(s0)
    800001fc:	fdc42783          	lw	a5,-36(s0)
    80000200:	0ff7f793          	zext.b	a5,a5
    80000204:	853e                	mv	a0,a5
    80000206:	2ea000ef          	jal	ra,800004f0 <print_uart_byte>
    8000020a:	4781                	li	a5,0
    8000020c:	853e                	mv	a0,a5
    8000020e:	70a2                	ld	ra,40(sp)
    80000210:	7402                	ld	s0,32(sp)
    80000212:	6145                	addi	sp,sp,48
    80000214:	8082                	ret

0000000080000216 <write_reg_u8>:
    80000216:	7179                	addi	sp,sp,-48
    80000218:	f422                	sd	s0,40(sp)
    8000021a:	1800                	addi	s0,sp,48
    8000021c:	fca43c23          	sd	a0,-40(s0)
    80000220:	87ae                	mv	a5,a1
    80000222:	fcf40ba3          	sb	a5,-41(s0)
    80000226:	fd843783          	ld	a5,-40(s0)
    8000022a:	fef43423          	sd	a5,-24(s0)
    8000022e:	fe843783          	ld	a5,-24(s0)
    80000232:	fd744703          	lbu	a4,-41(s0)
    80000236:	00e78023          	sb	a4,0(a5)
    8000023a:	0001                	nop
    8000023c:	7422                	ld	s0,40(sp)
    8000023e:	6145                	addi	sp,sp,48
    80000240:	8082                	ret

0000000080000242 <read_reg_u8>:
    80000242:	1101                	addi	sp,sp,-32
    80000244:	ec22                	sd	s0,24(sp)
    80000246:	1000                	addi	s0,sp,32
    80000248:	fea43423          	sd	a0,-24(s0)
    8000024c:	fe843783          	ld	a5,-24(s0)
    80000250:	0007c783          	lbu	a5,0(a5)
    80000254:	0ff7f793          	zext.b	a5,a5
    80000258:	853e                	mv	a0,a5
    8000025a:	6462                	ld	s0,24(sp)
    8000025c:	6105                	addi	sp,sp,32
    8000025e:	8082                	ret

0000000080000260 <is_transmit_empty>:
    80000260:	1141                	addi	sp,sp,-16
    80000262:	e406                	sd	ra,8(sp)
    80000264:	e022                	sd	s0,0(sp)
    80000266:	0800                	addi	s0,sp,16
    80000268:	100007b7          	lui	a5,0x10000
    8000026c:	01478513          	addi	a0,a5,20 # 10000014 <_start-0x6fffffec>
    80000270:	fd3ff0ef          	jal	ra,80000242 <read_reg_u8>
    80000274:	87aa                	mv	a5,a0
    80000276:	2781                	sext.w	a5,a5
    80000278:	0207f793          	andi	a5,a5,32
    8000027c:	2781                	sext.w	a5,a5
    8000027e:	853e                	mv	a0,a5
    80000280:	60a2                	ld	ra,8(sp)
    80000282:	6402                	ld	s0,0(sp)
    80000284:	0141                	addi	sp,sp,16
    80000286:	8082                	ret

0000000080000288 <write_serial>:
    80000288:	1101                	addi	sp,sp,-32
    8000028a:	ec06                	sd	ra,24(sp)
    8000028c:	e822                	sd	s0,16(sp)
    8000028e:	1000                	addi	s0,sp,32
    80000290:	87aa                	mv	a5,a0
    80000292:	fef407a3          	sb	a5,-17(s0)
    80000296:	fef44783          	lbu	a5,-17(s0)
    8000029a:	85be                	mv	a1,a5
    8000029c:	10000537          	lui	a0,0x10000
    800002a0:	f77ff0ef          	jal	ra,80000216 <write_reg_u8>
    800002a4:	0001                	nop
    800002a6:	60e2                	ld	ra,24(sp)
    800002a8:	6442                	ld	s0,16(sp)
    800002aa:	6105                	addi	sp,sp,32
    800002ac:	8082                	ret

00000000800002ae <init_uart>:
    800002ae:	7179                	addi	sp,sp,-48
    800002b0:	f406                	sd	ra,40(sp)
    800002b2:	f022                	sd	s0,32(sp)
    800002b4:	1800                	addi	s0,sp,48
    800002b6:	87aa                	mv	a5,a0
    800002b8:	872e                	mv	a4,a1
    800002ba:	fcf42e23          	sw	a5,-36(s0)
    800002be:	87ba                	mv	a5,a4
    800002c0:	fcf42c23          	sw	a5,-40(s0)
    800002c4:	fd842783          	lw	a5,-40(s0)
    800002c8:	0047979b          	slliw	a5,a5,0x4
    800002cc:	2781                	sext.w	a5,a5
    800002ce:	fdc42703          	lw	a4,-36(s0)
    800002d2:	02f757bb          	divuw	a5,a4,a5
    800002d6:	fef42623          	sw	a5,-20(s0)
    800002da:	4581                	li	a1,0
    800002dc:	100007b7          	lui	a5,0x10000
    800002e0:	00478513          	addi	a0,a5,4 # 10000004 <_start-0x6ffffffc>
    800002e4:	f33ff0ef          	jal	ra,80000216 <write_reg_u8>
    800002e8:	08000593          	li	a1,128
    800002ec:	100007b7          	lui	a5,0x10000
    800002f0:	00c78513          	addi	a0,a5,12 # 1000000c <_start-0x6ffffff4>
    800002f4:	f23ff0ef          	jal	ra,80000216 <write_reg_u8>
    800002f8:	fec42783          	lw	a5,-20(s0)
    800002fc:	0ff7f793          	zext.b	a5,a5
    80000300:	85be                	mv	a1,a5
    80000302:	10000537          	lui	a0,0x10000
    80000306:	f11ff0ef          	jal	ra,80000216 <write_reg_u8>
    8000030a:	fec42783          	lw	a5,-20(s0)
    8000030e:	0087d79b          	srliw	a5,a5,0x8
    80000312:	2781                	sext.w	a5,a5
    80000314:	0ff7f793          	zext.b	a5,a5
    80000318:	85be                	mv	a1,a5
    8000031a:	100007b7          	lui	a5,0x10000
    8000031e:	00478513          	addi	a0,a5,4 # 10000004 <_start-0x6ffffffc>
    80000322:	ef5ff0ef          	jal	ra,80000216 <write_reg_u8>
    80000326:	458d                	li	a1,3
    80000328:	100007b7          	lui	a5,0x10000
    8000032c:	00c78513          	addi	a0,a5,12 # 1000000c <_start-0x6ffffff4>
    80000330:	ee7ff0ef          	jal	ra,80000216 <write_reg_u8>
    80000334:	0c700593          	li	a1,199
    80000338:	100007b7          	lui	a5,0x10000
    8000033c:	00878513          	addi	a0,a5,8 # 10000008 <_start-0x6ffffff8>
    80000340:	ed7ff0ef          	jal	ra,80000216 <write_reg_u8>
    80000344:	02000593          	li	a1,32
    80000348:	100007b7          	lui	a5,0x10000
    8000034c:	01078513          	addi	a0,a5,16 # 10000010 <_start-0x6ffffff0>
    80000350:	ec7ff0ef          	jal	ra,80000216 <write_reg_u8>
    80000354:	0001                	nop
    80000356:	70a2                	ld	ra,40(sp)
    80000358:	7402                	ld	s0,32(sp)
    8000035a:	6145                	addi	sp,sp,48
    8000035c:	8082                	ret

000000008000035e <print_uart>:
    8000035e:	7179                	addi	sp,sp,-48
    80000360:	f406                	sd	ra,40(sp)
    80000362:	f022                	sd	s0,32(sp)
    80000364:	1800                	addi	s0,sp,48
    80000366:	fca43c23          	sd	a0,-40(s0)
    8000036a:	fd843783          	ld	a5,-40(s0)
    8000036e:	fef43423          	sd	a5,-24(s0)
    80000372:	a829                	j	8000038c <print_uart+0x2e>
    80000374:	fe843783          	ld	a5,-24(s0)
    80000378:	0007c783          	lbu	a5,0(a5)
    8000037c:	853e                	mv	a0,a5
    8000037e:	f0bff0ef          	jal	ra,80000288 <write_serial>
    80000382:	fe843783          	ld	a5,-24(s0)
    80000386:	0785                	addi	a5,a5,1
    80000388:	fef43423          	sd	a5,-24(s0)
    8000038c:	fe843783          	ld	a5,-24(s0)
    80000390:	0007c783          	lbu	a5,0(a5)
    80000394:	f3e5                	bnez	a5,80000374 <print_uart+0x16>
    80000396:	0001                	nop
    80000398:	0001                	nop
    8000039a:	70a2                	ld	ra,40(sp)
    8000039c:	7402                	ld	s0,32(sp)
    8000039e:	6145                	addi	sp,sp,48
    800003a0:	8082                	ret

00000000800003a2 <bin_to_hex>:
    800003a2:	7179                	addi	sp,sp,-48
    800003a4:	f422                	sd	s0,40(sp)
    800003a6:	1800                	addi	s0,sp,48
    800003a8:	87aa                	mv	a5,a0
    800003aa:	fcb43823          	sd	a1,-48(s0)
    800003ae:	fcf40fa3          	sb	a5,-33(s0)
    800003b2:	00000797          	auipc	a5,0x0
    800003b6:	18678793          	addi	a5,a5,390 # 80000538 <print_uart_byte+0x48>
    800003ba:	6398                	ld	a4,0(a5)
    800003bc:	fee43023          	sd	a4,-32(s0)
    800003c0:	679c                	ld	a5,8(a5)
    800003c2:	fef43423          	sd	a5,-24(s0)
    800003c6:	fdf44783          	lbu	a5,-33(s0)
    800003ca:	2781                	sext.w	a5,a5
    800003cc:	8bbd                	andi	a5,a5,15
    800003ce:	0007871b          	sext.w	a4,a5
    800003d2:	fd043783          	ld	a5,-48(s0)
    800003d6:	0785                	addi	a5,a5,1
    800003d8:	1741                	addi	a4,a4,-16
    800003da:	9722                	add	a4,a4,s0
    800003dc:	ff074703          	lbu	a4,-16(a4)
    800003e0:	00e78023          	sb	a4,0(a5)
    800003e4:	fdf44783          	lbu	a5,-33(s0)
    800003e8:	0047d79b          	srliw	a5,a5,0x4
    800003ec:	0ff7f793          	zext.b	a5,a5
    800003f0:	2781                	sext.w	a5,a5
    800003f2:	8bbd                	andi	a5,a5,15
    800003f4:	2781                	sext.w	a5,a5
    800003f6:	17c1                	addi	a5,a5,-16
    800003f8:	97a2                	add	a5,a5,s0
    800003fa:	ff07c703          	lbu	a4,-16(a5)
    800003fe:	fd043783          	ld	a5,-48(s0)
    80000402:	00e78023          	sb	a4,0(a5)
    80000406:	0001                	nop
    80000408:	7422                	ld	s0,40(sp)
    8000040a:	6145                	addi	sp,sp,48
    8000040c:	8082                	ret

000000008000040e <print_uart_int>:
    8000040e:	7179                	addi	sp,sp,-48
    80000410:	f406                	sd	ra,40(sp)
    80000412:	f022                	sd	s0,32(sp)
    80000414:	1800                	addi	s0,sp,48
    80000416:	87aa                	mv	a5,a0
    80000418:	fcf42e23          	sw	a5,-36(s0)
    8000041c:	478d                	li	a5,3
    8000041e:	fef42623          	sw	a5,-20(s0)
    80000422:	a0a1                	j	8000046a <print_uart_int+0x5c>
    80000424:	fec42783          	lw	a5,-20(s0)
    80000428:	0037979b          	slliw	a5,a5,0x3
    8000042c:	2781                	sext.w	a5,a5
    8000042e:	fdc42703          	lw	a4,-36(s0)
    80000432:	00f757bb          	srlw	a5,a4,a5
    80000436:	2781                	sext.w	a5,a5
    80000438:	fef405a3          	sb	a5,-21(s0)
    8000043c:	fe840713          	addi	a4,s0,-24
    80000440:	feb44783          	lbu	a5,-21(s0)
    80000444:	85ba                	mv	a1,a4
    80000446:	853e                	mv	a0,a5
    80000448:	f5bff0ef          	jal	ra,800003a2 <bin_to_hex>
    8000044c:	fe844783          	lbu	a5,-24(s0)
    80000450:	853e                	mv	a0,a5
    80000452:	e37ff0ef          	jal	ra,80000288 <write_serial>
    80000456:	fe944783          	lbu	a5,-23(s0)
    8000045a:	853e                	mv	a0,a5
    8000045c:	e2dff0ef          	jal	ra,80000288 <write_serial>
    80000460:	fec42783          	lw	a5,-20(s0)
    80000464:	37fd                	addiw	a5,a5,-1
    80000466:	fef42623          	sw	a5,-20(s0)
    8000046a:	fec42783          	lw	a5,-20(s0)
    8000046e:	2781                	sext.w	a5,a5
    80000470:	fa07dae3          	bgez	a5,80000424 <print_uart_int+0x16>
    80000474:	0001                	nop
    80000476:	0001                	nop
    80000478:	70a2                	ld	ra,40(sp)
    8000047a:	7402                	ld	s0,32(sp)
    8000047c:	6145                	addi	sp,sp,48
    8000047e:	8082                	ret

0000000080000480 <print_uart_addr>:
    80000480:	7179                	addi	sp,sp,-48
    80000482:	f406                	sd	ra,40(sp)
    80000484:	f022                	sd	s0,32(sp)
    80000486:	1800                	addi	s0,sp,48
    80000488:	fca43c23          	sd	a0,-40(s0)
    8000048c:	479d                	li	a5,7
    8000048e:	fef42623          	sw	a5,-20(s0)
    80000492:	a0a1                	j	800004da <print_uart_addr+0x5a>
    80000494:	fec42783          	lw	a5,-20(s0)
    80000498:	0037979b          	slliw	a5,a5,0x3
    8000049c:	2781                	sext.w	a5,a5
    8000049e:	873e                	mv	a4,a5
    800004a0:	fd843783          	ld	a5,-40(s0)
    800004a4:	00e7d7b3          	srl	a5,a5,a4
    800004a8:	fef405a3          	sb	a5,-21(s0)
    800004ac:	fe840713          	addi	a4,s0,-24
    800004b0:	feb44783          	lbu	a5,-21(s0)
    800004b4:	85ba                	mv	a1,a4
    800004b6:	853e                	mv	a0,a5
    800004b8:	eebff0ef          	jal	ra,800003a2 <bin_to_hex>
    800004bc:	fe844783          	lbu	a5,-24(s0)
    800004c0:	853e                	mv	a0,a5
    800004c2:	dc7ff0ef          	jal	ra,80000288 <write_serial>
    800004c6:	fe944783          	lbu	a5,-23(s0)
    800004ca:	853e                	mv	a0,a5
    800004cc:	dbdff0ef          	jal	ra,80000288 <write_serial>
    800004d0:	fec42783          	lw	a5,-20(s0)
    800004d4:	37fd                	addiw	a5,a5,-1
    800004d6:	fef42623          	sw	a5,-20(s0)
    800004da:	fec42783          	lw	a5,-20(s0)
    800004de:	2781                	sext.w	a5,a5
    800004e0:	fa07dae3          	bgez	a5,80000494 <print_uart_addr+0x14>
    800004e4:	0001                	nop
    800004e6:	0001                	nop
    800004e8:	70a2                	ld	ra,40(sp)
    800004ea:	7402                	ld	s0,32(sp)
    800004ec:	6145                	addi	sp,sp,48
    800004ee:	8082                	ret

00000000800004f0 <print_uart_byte>:
    800004f0:	7179                	addi	sp,sp,-48
    800004f2:	f406                	sd	ra,40(sp)
    800004f4:	f022                	sd	s0,32(sp)
    800004f6:	1800                	addi	s0,sp,48
    800004f8:	87aa                	mv	a5,a0
    800004fa:	fcf40fa3          	sb	a5,-33(s0)
    800004fe:	fe840713          	addi	a4,s0,-24
    80000502:	fdf44783          	lbu	a5,-33(s0)
    80000506:	85ba                	mv	a1,a4
    80000508:	853e                	mv	a0,a5
    8000050a:	e99ff0ef          	jal	ra,800003a2 <bin_to_hex>
    8000050e:	fe844783          	lbu	a5,-24(s0)
    80000512:	853e                	mv	a0,a5
    80000514:	d75ff0ef          	jal	ra,80000288 <write_serial>
    80000518:	fe944783          	lbu	a5,-23(s0)
    8000051c:	853e                	mv	a0,a5
    8000051e:	d6bff0ef          	jal	ra,80000288 <write_serial>
    80000522:	0001                	nop
    80000524:	70a2                	ld	ra,40(sp)
    80000526:	7402                	ld	s0,32(sp)
    80000528:	6145                	addi	sp,sp,48
    8000052a:	8082                	ret
