
./bin/ldpc_int8_cst.elf:     file format elf64-littleriscv


Disassembly of section .init:

0000000080000000 <_start>:
    80000000:	00001197          	auipc	gp,0x1
    80000004:	d5018193          	addi	gp,gp,-688 # 80000d50 <__global_pointer$>
    80000008:	00100117          	auipc	sp,0x100
    8000000c:	ff810113          	addi	sp,sp,-8 # 80100000 <__stack_top>
    80000010:	00010433          	add	s0,sp,zero
    80000014:	6299                	lui	t0,0x6
    80000016:	3002a073          	csrs	mstatus,t0
    8000001a:	00301073          	fscsr	zero
    8000001e:	f0000053          	fmv.w.x	ft0,zero
    80000022:	f00000d3          	fmv.w.x	ft1,zero
    80000026:	f0000153          	fmv.w.x	ft2,zero
    8000002a:	f00001d3          	fmv.w.x	ft3,zero
    8000002e:	f0000253          	fmv.w.x	ft4,zero
    80000032:	f00002d3          	fmv.w.x	ft5,zero
    80000036:	f0000353          	fmv.w.x	ft6,zero
    8000003a:	f00003d3          	fmv.w.x	ft7,zero
    8000003e:	f0000453          	fmv.w.x	fs0,zero
    80000042:	f00004d3          	fmv.w.x	fs1,zero
    80000046:	f0000553          	fmv.w.x	fa0,zero
    8000004a:	f00005d3          	fmv.w.x	fa1,zero
    8000004e:	f0000653          	fmv.w.x	fa2,zero
    80000052:	f00006d3          	fmv.w.x	fa3,zero
    80000056:	f0000753          	fmv.w.x	fa4,zero
    8000005a:	f00007d3          	fmv.w.x	fa5,zero
    8000005e:	f0000853          	fmv.w.x	fa6,zero
    80000062:	f00008d3          	fmv.w.x	fa7,zero
    80000066:	f0000953          	fmv.w.x	fs2,zero
    8000006a:	f00009d3          	fmv.w.x	fs3,zero
    8000006e:	f0000a53          	fmv.w.x	fs4,zero
    80000072:	f0000ad3          	fmv.w.x	fs5,zero
    80000076:	f0000b53          	fmv.w.x	fs6,zero
    8000007a:	f0000bd3          	fmv.w.x	fs7,zero
    8000007e:	f0000c53          	fmv.w.x	fs8,zero
    80000082:	f0000cd3          	fmv.w.x	fs9,zero
    80000086:	f0000d53          	fmv.w.x	fs10,zero
    8000008a:	f0000dd3          	fmv.w.x	fs11,zero
    8000008e:	f0000e53          	fmv.w.x	ft8,zero
    80000092:	f0000ed3          	fmv.w.x	ft9,zero
    80000096:	f0000f53          	fmv.w.x	ft10,zero
    8000009a:	f0000fd3          	fmv.w.x	ft11,zero
    8000009e:	008000ef          	jal	ra,800000a6 <main>
    800000a2:	00000073          	ecall

Disassembly of section .text:

00000000800000a6 <main>:
    800000a6:	715d                	addi	sp,sp,-80
    800000a8:	00000817          	auipc	a6,0x0
    800000ac:	39880813          	addi	a6,a6,920 # 80000440 <process+0x104>
    800000b0:	47a9                	li	a5,10
    800000b2:	00000717          	auipc	a4,0x0
    800000b6:	39670713          	addi	a4,a4,918 # 80000448 <process+0x10c>
    800000ba:	46d1                	li	a3,20
    800000bc:	02200613          	li	a2,34
    800000c0:	00000597          	auipc	a1,0x0
    800000c4:	3a058593          	addi	a1,a1,928 # 80000460 <process+0x124>
    800000c8:	00000517          	auipc	a0,0x0
    800000cc:	3a050513          	addi	a0,a0,928 # 80000468 <process+0x12c>
    800000d0:	e486                	sd	ra,72(sp)
    800000d2:	e0a2                	sd	s0,64(sp)
    800000d4:	fc26                	sd	s1,56(sp)
    800000d6:	f84a                	sd	s2,48(sp)
    800000d8:	f44e                	sd	s3,40(sp)
    800000da:	f052                	sd	s4,32(sp)
    800000dc:	ec56                	sd	s5,24(sp)
    800000de:	e85a                	sd	s6,16(sp)
    800000e0:	e45e                	sd	s7,8(sp)
    800000e2:	162000ef          	jal	ra,80000244 <printf>
    800000e6:	00000617          	auipc	a2,0x0
    800000ea:	3aa60613          	addi	a2,a2,938 # 80000490 <process+0x154>
    800000ee:	00000597          	auipc	a1,0x0
    800000f2:	3b258593          	addi	a1,a1,946 # 800004a0 <process+0x164>
    800000f6:	00000517          	auipc	a0,0x0
    800000fa:	3ba50513          	addi	a0,a0,954 # 800004b0 <process+0x174>
    800000fe:	146000ef          	jal	ra,80000244 <printf>
    80000102:	00000517          	auipc	a0,0x0
    80000106:	3c650513          	addi	a0,a0,966 # 800004c8 <process+0x18c>
    8000010a:	13a000ef          	jal	ra,80000244 <printf>
    8000010e:	00000517          	auipc	a0,0x0
    80000112:	3c250513          	addi	a0,a0,962 # 800004d0 <process+0x194>
    80000116:	8c818493          	addi	s1,gp,-1848 # 80000618 <codw>
    8000011a:	12a000ef          	jal	ra,80000244 <printf>
    8000011e:	8a018993          	addi	s3,gp,-1888 # 800005f0 <err_>
    80000122:	8926                	mv	s2,s1
    80000124:	4401                	li	s0,0
    80000126:	00000b97          	auipc	s7,0x0
    8000012a:	3a2b8b93          	addi	s7,s7,930 # 800004c8 <process+0x18c>
    8000012e:	00000b17          	auipc	s6,0x0
    80000132:	3bab0b13          	addi	s6,s6,954 # 800004e8 <process+0x1ac>
    80000136:	00000a97          	auipc	s5,0x0
    8000013a:	3aaa8a93          	addi	s5,s5,938 # 800004e0 <process+0x1a4>
    8000013e:	02200a13          	li	s4,34
    80000142:	a015                	j	80000166 <main+0xc0>
    80000144:	00098783          	lb	a5,0(s3)
    80000148:	00090703          	lb	a4,0(s2)
    8000014c:	8556                	mv	a0,s5
    8000014e:	00f027b3          	sgtz	a5,a5
    80000152:	00f71363          	bne	a4,a5,80000158 <main+0xb2>
    80000156:	855a                	mv	a0,s6
    80000158:	2405                	addiw	s0,s0,1
    8000015a:	0ea000ef          	jal	ra,80000244 <printf>
    8000015e:	0985                	addi	s3,s3,1
    80000160:	0905                	addi	s2,s2,1
    80000162:	01440963          	beq	s0,s4,80000174 <main+0xce>
    80000166:	01f47793          	andi	a5,s0,31
    8000016a:	ffe9                	bnez	a5,80000144 <main+0x9e>
    8000016c:	855e                	mv	a0,s7
    8000016e:	0d6000ef          	jal	ra,80000244 <printf>
    80000172:	bfc9                	j	80000144 <main+0x9e>
    80000174:	0c0000ef          	jal	ra,80000234 <cycles>
    80000178:	892a                	mv	s2,a0
    8000017a:	0c2000ef          	jal	ra,8000023c <insn>
    8000017e:	842a                	mv	s0,a0
    80000180:	1bc000ef          	jal	ra,8000033c <process>
    80000184:	0b0000ef          	jal	ra,80000234 <cycles>
    80000188:	89aa                	mv	s3,a0
    8000018a:	0b2000ef          	jal	ra,8000023c <insn>
    8000018e:	412985b3          	sub	a1,s3,s2
    80000192:	40850433          	sub	s0,a0,s0
    80000196:	00000517          	auipc	a0,0x0
    8000019a:	35a50513          	addi	a0,a0,858 # 800004f0 <process+0x1b4>
    8000019e:	0a6000ef          	jal	ra,80000244 <printf>
    800001a2:	85a2                	mv	a1,s0
    800001a4:	00000517          	auipc	a0,0x0
    800001a8:	35c50513          	addi	a0,a0,860 # 80000500 <process+0x1c4>
    800001ac:	098000ef          	jal	ra,80000244 <printf>
    800001b0:	00000517          	auipc	a0,0x0
    800001b4:	31850513          	addi	a0,a0,792 # 800004c8 <process+0x18c>
    800001b8:	08c000ef          	jal	ra,80000244 <printf>
    800001bc:	00000517          	auipc	a0,0x0
    800001c0:	35450513          	addi	a0,a0,852 # 80000510 <process+0x1d4>
    800001c4:	080000ef          	jal	ra,80000244 <printf>
    800001c8:	86818913          	addi	s2,gp,-1944 # 800005b8 <accuVn>
    800001cc:	4401                	li	s0,0
    800001ce:	00000b17          	auipc	s6,0x0
    800001d2:	2fab0b13          	addi	s6,s6,762 # 800004c8 <process+0x18c>
    800001d6:	00000a97          	auipc	s5,0x0
    800001da:	312a8a93          	addi	s5,s5,786 # 800004e8 <process+0x1ac>
    800001de:	00000a17          	auipc	s4,0x0
    800001e2:	302a0a13          	addi	s4,s4,770 # 800004e0 <process+0x1a4>
    800001e6:	02200993          	li	s3,34
    800001ea:	a015                	j	8000020e <main+0x168>
    800001ec:	00090783          	lb	a5,0(s2)
    800001f0:	00048703          	lb	a4,0(s1)
    800001f4:	8552                	mv	a0,s4
    800001f6:	00f027b3          	sgtz	a5,a5
    800001fa:	00f71363          	bne	a4,a5,80000200 <main+0x15a>
    800001fe:	8556                	mv	a0,s5
    80000200:	2405                	addiw	s0,s0,1
    80000202:	042000ef          	jal	ra,80000244 <printf>
    80000206:	0905                	addi	s2,s2,1
    80000208:	0485                	addi	s1,s1,1
    8000020a:	01340963          	beq	s0,s3,8000021c <main+0x176>
    8000020e:	01f47793          	andi	a5,s0,31
    80000212:	ffe9                	bnez	a5,800001ec <main+0x146>
    80000214:	855a                	mv	a0,s6
    80000216:	02e000ef          	jal	ra,80000244 <printf>
    8000021a:	bfc9                	j	800001ec <main+0x146>
    8000021c:	60a6                	ld	ra,72(sp)
    8000021e:	6406                	ld	s0,64(sp)
    80000220:	74e2                	ld	s1,56(sp)
    80000222:	7942                	ld	s2,48(sp)
    80000224:	79a2                	ld	s3,40(sp)
    80000226:	7a02                	ld	s4,32(sp)
    80000228:	6ae2                	ld	s5,24(sp)
    8000022a:	6b42                	ld	s6,16(sp)
    8000022c:	6ba2                	ld	s7,8(sp)
    8000022e:	4501                	li	a0,0
    80000230:	6161                	addi	sp,sp,80
    80000232:	8082                	ret

0000000080000234 <cycles>:
    80000234:	c0002573          	rdcycle	a0
    80000238:	2501                	sext.w	a0,a0
    8000023a:	8082                	ret

000000008000023c <insn>:
    8000023c:	c0202573          	rdinstret	a0
    80000240:	2501                	sext.w	a0,a0
    80000242:	8082                	ret

0000000080000244 <printf>:
    80000244:	7159                	addi	sp,sp,-112
    80000246:	00054303          	lbu	t1,0(a0)
    8000024a:	ecbe                	sd	a5,88(sp)
    8000024c:	183c                	addi	a5,sp,56
    8000024e:	fc2e                	sd	a1,56(sp)
    80000250:	e0b2                	sd	a2,64(sp)
    80000252:	e4b6                	sd	a3,72(sp)
    80000254:	e8ba                	sd	a4,80(sp)
    80000256:	f0c2                	sd	a6,96(sp)
    80000258:	f4c6                	sd	a7,104(sp)
    8000025a:	e43e                	sd	a5,8(sp)
    8000025c:	02030963          	beqz	t1,8000028e <printf+0x4a>
    80000260:	4681                	li	a3,0
    80000262:	02500e13          	li	t3,37
    80000266:	10000eb7          	lui	t4,0x10000
    8000026a:	06300593          	li	a1,99
    8000026e:	07300813          	li	a6,115
    80000272:	06400893          	li	a7,100
    80000276:	01c30e63          	beq	t1,t3,80000292 <printf+0x4e>
    8000027a:	2301                	sext.w	t1,t1
    8000027c:	006ea023          	sw	t1,0(t4) # 10000000 <_start-0x70000000>
    80000280:	2685                	addiw	a3,a3,1
    80000282:	00d507b3          	add	a5,a0,a3
    80000286:	0007c303          	lbu	t1,0(a5)
    8000028a:	fe0316e3          	bnez	t1,80000276 <printf+0x32>
    8000028e:	6165                	addi	sp,sp,112
    80000290:	8082                	ret
    80000292:	0016871b          	addiw	a4,a3,1
    80000296:	a029                	j	800002a0 <printf+0x5c>
    80000298:	03078663          	beq	a5,a6,800002c4 <printf+0x80>
    8000029c:	05178463          	beq	a5,a7,800002e4 <printf+0xa0>
    800002a0:	00e507b3          	add	a5,a0,a4
    800002a4:	0007c783          	lbu	a5,0(a5)
    800002a8:	0007069b          	sext.w	a3,a4
    800002ac:	0705                	addi	a4,a4,1
    800002ae:	dbe9                	beqz	a5,80000280 <printf+0x3c>
    800002b0:	feb794e3          	bne	a5,a1,80000298 <printf+0x54>
    800002b4:	67a2                	ld	a5,8(sp)
    800002b6:	4398                	lw	a4,0(a5)
    800002b8:	07a1                	addi	a5,a5,8
    800002ba:	e43e                	sd	a5,8(sp)
    800002bc:	100007b7          	lui	a5,0x10000
    800002c0:	c398                	sw	a4,0(a5)
    800002c2:	bf7d                	j	80000280 <printf+0x3c>
    800002c4:	67a2                	ld	a5,8(sp)
    800002c6:	6398                	ld	a4,0(a5)
    800002c8:	07a1                	addi	a5,a5,8 # 10000008 <_start-0x6ffffff8>
    800002ca:	e43e                	sd	a5,8(sp)
    800002cc:	00074783          	lbu	a5,0(a4)
    800002d0:	dbc5                	beqz	a5,80000280 <printf+0x3c>
    800002d2:	10000637          	lui	a2,0x10000
    800002d6:	2781                	sext.w	a5,a5
    800002d8:	0705                	addi	a4,a4,1
    800002da:	c21c                	sw	a5,0(a2)
    800002dc:	00074783          	lbu	a5,0(a4)
    800002e0:	fbfd                	bnez	a5,800002d6 <printf+0x92>
    800002e2:	bf79                	j	80000280 <printf+0x3c>
    800002e4:	67a2                	ld	a5,8(sp)
    800002e6:	4398                	lw	a4,0(a5)
    800002e8:	07a1                	addi	a5,a5,8
    800002ea:	e43e                	sd	a5,8(sp)
    800002ec:	02074c63          	bltz	a4,80000324 <printf+0xe0>
    800002f0:	01010f13          	addi	t5,sp,16
    800002f4:	87fa                	mv	a5,t5
    800002f6:	4329                	li	t1,10
    800002f8:	e319                	bnez	a4,800002fe <printf+0xba>
    800002fa:	01e79c63          	bne	a5,t5,80000312 <printf+0xce>
    800002fe:	0267663b          	remw	a2,a4,t1
    80000302:	0785                	addi	a5,a5,1
    80000304:	0306061b          	addiw	a2,a2,48 # 10000030 <_start-0x6fffffd0>
    80000308:	0267473b          	divw	a4,a4,t1
    8000030c:	fec78fa3          	sb	a2,-1(a5)
    80000310:	b7e5                	j	800002f8 <printf+0xb4>
    80000312:	10000637          	lui	a2,0x10000
    80000316:	fff7c703          	lbu	a4,-1(a5)
    8000031a:	17fd                	addi	a5,a5,-1
    8000031c:	c218                	sw	a4,0(a2)
    8000031e:	ffe79ce3          	bne	a5,t5,80000316 <printf+0xd2>
    80000322:	bfb9                	j	80000280 <printf+0x3c>
    80000324:	100007b7          	lui	a5,0x10000
    80000328:	02d00613          	li	a2,45
    8000032c:	01010f13          	addi	t5,sp,16
    80000330:	c390                	sw	a2,0(a5)
    80000332:	40e0073b          	negw	a4,a4
    80000336:	87fa                	mv	a5,t5
    80000338:	4329                	li	t1,10
    8000033a:	bf7d                	j	800002f8 <printf+0xb4>

000000008000033c <process>:
    8000033c:	711d                	addi	sp,sp,-96
    8000033e:	eca2                	sd	s0,88(sp)
    80000340:	e8a6                	sd	s1,80(sp)
    80000342:	e4ca                	sd	s2,72(sp)
    80000344:	e0ce                	sd	s3,64(sp)
    80000346:	fc52                	sd	s4,56(sp)
    80000348:	f856                	sd	s5,48(sp)
    8000034a:	f45a                	sd	s6,40(sp)
    8000034c:	4e01                	li	t3,0
    8000034e:	4429                	li	s0,10
    80000350:	00000897          	auipc	a7,0x0
    80000354:	20088893          	addi	a7,a7,512 # 80000550 <posVn>
    80000358:	89e18393          	addi	t2,gp,-1890 # 800005ee <deg_Cns+0xe>
    8000035c:	4301                	li	t1,0
    8000035e:	89018f93          	addi	t6,gp,-1904 # 800005e0 <deg_Cns>
    80000362:	8f018293          	addi	t0,gp,-1808 # 80000640 <c2v>
    80000366:	00000f17          	auipc	t5,0x0
    8000036a:	1eaf0f13          	addi	t5,t5,490 # 80000550 <posVn>
    8000036e:	000f8e83          	lb	t4,0(t6)
    80000372:	0bd05563          	blez	t4,8000041c <process+0xe0>
    80000376:	fffe8a9b          	addiw	s5,t4,-1
    8000037a:	1a82                	slli	s5,s5,0x20
    8000037c:	020ada93          	srli	s5,s5,0x20
    80000380:	001f0b13          	addi	s6,t5,1
    80000384:	857a                	mv	a0,t5
    80000386:	8816                	mv	a6,t0
    80000388:	898a                	mv	s3,sp
    8000038a:	9b56                	add	s6,s6,s5
    8000038c:	8a0a                	mv	s4,sp
    8000038e:	8916                	mv	s2,t0
    80000390:	85fa                	mv	a1,t5
    80000392:	4481                	li	s1,0
    80000394:	07f00613          	li	a2,127
    80000398:	07f00693          	li	a3,127
    8000039c:	00058783          	lb	a5,0(a1)
    800003a0:	00094703          	lbu	a4,0(s2)
    800003a4:	97c6                	add	a5,a5,a7
    800003a6:	0687c783          	lbu	a5,104(a5) # 10000068 <_start-0x6fffff98>
    800003aa:	00e7d78b          	ld.subsat	a5,a5,a4
    800003ae:	0ff7f713          	zext.b	a4,a5
    800003b2:	0077571b          	srliw	a4,a4,0x7
    800003b6:	8f25                	xor	a4,a4,s1
    800003b8:	0187149b          	slliw	s1,a4,0x18
    800003bc:	00fa0023          	sb	a5,0(s4)
    800003c0:	4184d49b          	sraiw	s1,s1,0x18
    800003c4:	0067978b          	ld.abs	a5,a5,t1
    800003c8:	7ed6160b          	ld3_minmax	a2,a2,a3,# internal error, undefined modifier (r)
    800003cc:	0186161b          	slliw	a2,a2,0x18
    800003d0:	4186561b          	sraiw	a2,a2,0x18
    800003d4:	0ad7c7b3          	ld.min	a5,a5,a3
    800003d8:	0187969b          	slliw	a3,a5,0x18
    800003dc:	0585                	addi	a1,a1,1
    800003de:	4186d69b          	sraiw	a3,a3,0x18
    800003e2:	0905                	addi	s2,s2,1
    800003e4:	0a05                	addi	s4,s4,1
    800003e6:	fb659be3          	bne	a1,s6,8000039c <process+0x60>
    800003ea:	00110613          	addi	a2,sp,1
    800003ee:	9ab2                	add	s5,s5,a2
    800003f0:	a011                	j	800003f4 <process+0xb8>
    800003f2:	0605                	addi	a2,a2,1 # 10000001 <_start-0x6fffffff>
    800003f4:	00098783          	lb	a5,0(s3)
    800003f8:	7ede370b          	ld3_min_sorting	a4,t3,a3,# internal error, undefined modifier (r)
    800003fc:	7e97270b          	ld3_rsign_nmess	a4,a4,s1,# internal error, undefined modifier (r)
    80000400:	00e80023          	sb	a4,0(a6)
    80000404:	02e7a78b          	ld.invminand	a5,a5,a4
    80000408:	00050703          	lb	a4,0(a0)
    8000040c:	89b2                	mv	s3,a2
    8000040e:	0805                	addi	a6,a6,1
    80000410:	9746                	add	a4,a4,a7
    80000412:	06f70423          	sb	a5,104(a4)
    80000416:	0505                	addi	a0,a0,1
    80000418:	fcca9de3          	bne	s5,a2,800003f2 <process+0xb6>
    8000041c:	0f85                	addi	t6,t6,1
    8000041e:	9f76                	add	t5,t5,t4
    80000420:	92f6                	add	t0,t0,t4
    80000422:	f47f96e3          	bne	t6,t2,8000036e <process+0x32>
    80000426:	347d                	addiw	s0,s0,-1
    80000428:	f81d                	bnez	s0,8000035e <process+0x22>
    8000042a:	6466                	ld	s0,88(sp)
    8000042c:	64c6                	ld	s1,80(sp)
    8000042e:	6926                	ld	s2,72(sp)
    80000430:	6986                	ld	s3,64(sp)
    80000432:	7a62                	ld	s4,56(sp)
    80000434:	7ac2                	ld	s5,48(sp)
    80000436:	7b22                	ld	s6,40(sp)
    80000438:	6125                	addi	sp,sp,96
    8000043a:	8082                	ret
