
./bin/polar_fsc_int8:     file format elf64-littleriscv


Disassembly of section .init:

0000000080000000 <_start>:
    80000000:	00003197          	auipc	gp,0x3
    80000004:	a4018193          	add	gp,gp,-1472 # 80002a40 <LLR>
    80000008:	00100117          	auipc	sp,0x100
    8000000c:	ff810113          	add	sp,sp,-8 # 80100000 <__stack_top>
    80000010:	00010433          	add	s0,sp,zero
    80000014:	6299                	lui	t0,0x6
    80000016:	3002a073          	csrs	mstatus,t0
    8000001a:	008000ef          	jal	80000022 <main>
    8000001e:	00000073          	ecall

Disassembly of section .text:

0000000080000022 <main>:
    80000022:	715d                	add	sp,sp,-80
    80000024:	e486                	sd	ra,72(sp)
    80000026:	e0a2                	sd	s0,64(sp)
    80000028:	fc26                	sd	s1,56(sp)
    8000002a:	f84a                	sd	s2,48(sp)
    8000002c:	f44e                	sd	s3,40(sp)
    8000002e:	f052                	sd	s4,32(sp)
    80000030:	ec56                	sd	s5,24(sp)
    80000032:	e85a                	sd	s6,16(sp)
    80000034:	e45e                	sd	s7,8(sp)
    80000036:	00001797          	auipc	a5,0x1
    8000003a:	5fa78793          	add	a5,a5,1530 # 80001630 <codw>
    8000003e:	00003717          	auipc	a4,0x3
    80000042:	a0270713          	add	a4,a4,-1534 # 80002a40 <LLR>
    80000046:	00002617          	auipc	a2,0x2
    8000004a:	9ea60613          	add	a2,a2,-1558 # 80001a30 <froozen_bits>
    8000004e:	6394                	ld	a3,0(a5)
    80000050:	07a1                	add	a5,a5,8
    80000052:	0721                	add	a4,a4,8
    80000054:	fed73c23          	sd	a3,-8(a4)
    80000058:	fec79be3          	bne	a5,a2,8000004e <main+0x2c>
    8000005c:	11c000ef          	jal	80000178 <cycles>
    80000060:	84aa                	mv	s1,a0
    80000062:	11e000ef          	jal	80000180 <insn>
    80000066:	00002697          	auipc	a3,0x2
    8000006a:	9ca68693          	add	a3,a3,-1590 # 80001a30 <froozen_bits>
    8000006e:	40000613          	li	a2,1024
    80000072:	00003597          	auipc	a1,0x3
    80000076:	9ce58593          	add	a1,a1,-1586 # 80002a40 <LLR>
    8000007a:	842a                	mv	s0,a0
    8000007c:	a0018513          	add	a0,gp,-1536 # 80002440 <PS>
    80000080:	200000ef          	jal	80000280 <node_8.part.0>
    80000084:	0f4000ef          	jal	80000178 <cycles>
    80000088:	892a                	mv	s2,a0
    8000008a:	0f6000ef          	jal	80000180 <insn>
    8000008e:	40850433          	sub	s0,a0,s0
    80000092:	409905b3          	sub	a1,s2,s1
    80000096:	00001517          	auipc	a0,0x1
    8000009a:	50250513          	add	a0,a0,1282 # 80001598 <node_top+0x29e>
    8000009e:	0ea000ef          	jal	80000188 <printf>
    800000a2:	85a2                	mv	a1,s0
    800000a4:	00001517          	auipc	a0,0x1
    800000a8:	50450513          	add	a0,a0,1284 # 800015a8 <node_top+0x2ae>
    800000ac:	0dc000ef          	jal	80000188 <printf>
    800000b0:	a0018513          	add	a0,gp,-1536 # 80002440 <PS>
    800000b4:	00002797          	auipc	a5,0x2
    800000b8:	97c78793          	add	a5,a5,-1668 # 80001a30 <froozen_bits>
    800000bc:	872a                	mv	a4,a0
    800000be:	00002817          	auipc	a6,0x2
    800000c2:	d7280813          	add	a6,a6,-654 # 80001e30 <U>
    800000c6:	4681                	li	a3,0
    800000c8:	0007c603          	lbu	a2,0(a5)
    800000cc:	00d505b3          	add	a1,a0,a3
    800000d0:	0785                	add	a5,a5,1
    800000d2:	e611                	bnez	a2,800000de <main+0xbc>
    800000d4:	00074603          	lbu	a2,0(a4)
    800000d8:	2685                	addw	a3,a3,1
    800000da:	40c58023          	sb	a2,1024(a1)
    800000de:	0705                	add	a4,a4,1
    800000e0:	ff0794e3          	bne	a5,a6,800000c8 <main+0xa6>
    800000e4:	00001517          	auipc	a0,0x1
    800000e8:	4d450513          	add	a0,a0,1236 # 800015b8 <node_top+0x2be>
    800000ec:	09c000ef          	jal	80000188 <printf>
    800000f0:	e0018913          	add	s2,gp,-512 # 80002840 <decode_out_>
    800000f4:	00002497          	auipc	s1,0x2
    800000f8:	d3c48493          	add	s1,s1,-708 # 80001e30 <U>
    800000fc:	4401                	li	s0,0
    800000fe:	00001a17          	auipc	s4,0x1
    80000102:	4caa0a13          	add	s4,s4,1226 # 800015c8 <node_top+0x2ce>
    80000106:	00001b97          	auipc	s7,0x1
    8000010a:	4cab8b93          	add	s7,s7,1226 # 800015d0 <node_top+0x2d6>
    8000010e:	00001b17          	auipc	s6,0x1
    80000112:	4cab0b13          	add	s6,s6,1226 # 800015d8 <node_top+0x2de>
    80000116:	00001a97          	auipc	s5,0x1
    8000011a:	4daa8a93          	add	s5,s5,1242 # 800015f0 <node_top+0x2f6>
    8000011e:	20000993          	li	s3,512
    80000122:	00094703          	lbu	a4,0(s2)
    80000126:	0004c783          	lbu	a5,0(s1)
    8000012a:	8552                	mv	a0,s4
    8000012c:	02f70263          	beq	a4,a5,80000150 <main+0x12e>
    80000130:	058000ef          	jal	80000188 <printf>
    80000134:	85a2                	mv	a1,s0
    80000136:	855e                	mv	a0,s7
    80000138:	050000ef          	jal	80000188 <printf>
    8000013c:	00090583          	lb	a1,0(s2)
    80000140:	855a                	mv	a0,s6
    80000142:	046000ef          	jal	80000188 <printf>
    80000146:	00048583          	lb	a1,0(s1)
    8000014a:	8556                	mv	a0,s5
    8000014c:	03c000ef          	jal	80000188 <printf>
    80000150:	2405                	addw	s0,s0,1
    80000152:	0905                	add	s2,s2,1
    80000154:	0485                	add	s1,s1,1
    80000156:	fd3416e3          	bne	s0,s3,80000122 <main+0x100>
    8000015a:	6406                	ld	s0,64(sp)
    8000015c:	60a6                	ld	ra,72(sp)
    8000015e:	74e2                	ld	s1,56(sp)
    80000160:	7942                	ld	s2,48(sp)
    80000162:	79a2                	ld	s3,40(sp)
    80000164:	7a02                	ld	s4,32(sp)
    80000166:	6ae2                	ld	s5,24(sp)
    80000168:	6b42                	ld	s6,16(sp)
    8000016a:	6ba2                	ld	s7,8(sp)
    8000016c:	00001517          	auipc	a0,0x1
    80000170:	48c50513          	add	a0,a0,1164 # 800015f8 <node_top+0x2fe>
    80000174:	6161                	add	sp,sp,80
    80000176:	a809                	j	80000188 <printf>

0000000080000178 <cycles>:
    80000178:	c0002573          	rdcycle	a0
    8000017c:	2501                	sext.w	a0,a0
    8000017e:	8082                	ret

0000000080000180 <insn>:
    80000180:	c0202573          	rdinstret	a0
    80000184:	2501                	sext.w	a0,a0
    80000186:	8082                	ret

0000000080000188 <printf>:
    80000188:	7159                	add	sp,sp,-112
    8000018a:	00054303          	lbu	t1,0(a0)
    8000018e:	ecbe                	sd	a5,88(sp)
    80000190:	183c                	add	a5,sp,56
    80000192:	fc2e                	sd	a1,56(sp)
    80000194:	e0b2                	sd	a2,64(sp)
    80000196:	e4b6                	sd	a3,72(sp)
    80000198:	e8ba                	sd	a4,80(sp)
    8000019a:	f0c2                	sd	a6,96(sp)
    8000019c:	f4c6                	sd	a7,104(sp)
    8000019e:	e43e                	sd	a5,8(sp)
    800001a0:	02030963          	beqz	t1,800001d2 <printf+0x4a>
    800001a4:	4681                	li	a3,0
    800001a6:	02500e13          	li	t3,37
    800001aa:	10000eb7          	lui	t4,0x10000
    800001ae:	06300593          	li	a1,99
    800001b2:	07300813          	li	a6,115
    800001b6:	06400893          	li	a7,100
    800001ba:	01c30e63          	beq	t1,t3,800001d6 <printf+0x4e>
    800001be:	2301                	sext.w	t1,t1
    800001c0:	006ea023          	sw	t1,0(t4) # 10000000 <_start-0x70000000>
    800001c4:	2685                	addw	a3,a3,1
    800001c6:	00d507b3          	add	a5,a0,a3
    800001ca:	0007c303          	lbu	t1,0(a5)
    800001ce:	fe0316e3          	bnez	t1,800001ba <printf+0x32>
    800001d2:	6165                	add	sp,sp,112
    800001d4:	8082                	ret
    800001d6:	0016871b          	addw	a4,a3,1
    800001da:	a029                	j	800001e4 <printf+0x5c>
    800001dc:	03078663          	beq	a5,a6,80000208 <printf+0x80>
    800001e0:	05178463          	beq	a5,a7,80000228 <printf+0xa0>
    800001e4:	00e507b3          	add	a5,a0,a4
    800001e8:	0007c783          	lbu	a5,0(a5)
    800001ec:	0007069b          	sext.w	a3,a4
    800001f0:	0705                	add	a4,a4,1
    800001f2:	dbe9                	beqz	a5,800001c4 <printf+0x3c>
    800001f4:	feb794e3          	bne	a5,a1,800001dc <printf+0x54>
    800001f8:	67a2                	ld	a5,8(sp)
    800001fa:	4398                	lw	a4,0(a5)
    800001fc:	07a1                	add	a5,a5,8
    800001fe:	e43e                	sd	a5,8(sp)
    80000200:	100007b7          	lui	a5,0x10000
    80000204:	c398                	sw	a4,0(a5)
    80000206:	bf7d                	j	800001c4 <printf+0x3c>
    80000208:	67a2                	ld	a5,8(sp)
    8000020a:	6398                	ld	a4,0(a5)
    8000020c:	07a1                	add	a5,a5,8 # 10000008 <_start-0x6ffffff8>
    8000020e:	e43e                	sd	a5,8(sp)
    80000210:	00074783          	lbu	a5,0(a4)
    80000214:	dbc5                	beqz	a5,800001c4 <printf+0x3c>
    80000216:	10000637          	lui	a2,0x10000
    8000021a:	2781                	sext.w	a5,a5
    8000021c:	0705                	add	a4,a4,1
    8000021e:	c21c                	sw	a5,0(a2)
    80000220:	00074783          	lbu	a5,0(a4)
    80000224:	fbfd                	bnez	a5,8000021a <printf+0x92>
    80000226:	bf79                	j	800001c4 <printf+0x3c>
    80000228:	67a2                	ld	a5,8(sp)
    8000022a:	4398                	lw	a4,0(a5)
    8000022c:	07a1                	add	a5,a5,8
    8000022e:	e43e                	sd	a5,8(sp)
    80000230:	02074c63          	bltz	a4,80000268 <printf+0xe0>
    80000234:	01010f13          	add	t5,sp,16
    80000238:	87fa                	mv	a5,t5
    8000023a:	4329                	li	t1,10
    8000023c:	e319                	bnez	a4,80000242 <printf+0xba>
    8000023e:	01e79c63          	bne	a5,t5,80000256 <printf+0xce>
    80000242:	0267663b          	remw	a2,a4,t1
    80000246:	0785                	add	a5,a5,1
    80000248:	0306061b          	addw	a2,a2,48 # 10000030 <_start-0x6fffffd0>
    8000024c:	0267473b          	divw	a4,a4,t1
    80000250:	fec78fa3          	sb	a2,-1(a5)
    80000254:	b7e5                	j	8000023c <printf+0xb4>
    80000256:	10000637          	lui	a2,0x10000
    8000025a:	fff7c703          	lbu	a4,-1(a5)
    8000025e:	17fd                	add	a5,a5,-1
    80000260:	c218                	sw	a4,0(a2)
    80000262:	ffe79ce3          	bne	a5,t5,8000025a <printf+0xd2>
    80000266:	bfb9                	j	800001c4 <printf+0x3c>
    80000268:	100007b7          	lui	a5,0x10000
    8000026c:	02d00613          	li	a2,45
    80000270:	01010f13          	add	t5,sp,16
    80000274:	c390                	sw	a2,0(a5)
    80000276:	40e0073b          	negw	a4,a4
    8000027a:	87fa                	mv	a5,t5
    8000027c:	4329                	li	t1,10
    8000027e:	bf7d                	j	8000023c <printf+0xb4>

0000000080000280 <node_8.part.0>:
    80000280:	715d                	add	sp,sp,-80
    80000282:	fc26                	sd	s1,56(sp)
    80000284:	f84a                	sd	s2,48(sp)
    80000286:	f44e                	sd	s3,40(sp)
    80000288:	f052                	sd	s4,32(sp)
    8000028a:	e486                	sd	ra,72(sp)
    8000028c:	e0a2                	sd	s0,64(sp)
    8000028e:	ec56                	sd	s5,24(sp)
    80000290:	e85a                	sd	s6,16(sp)
    80000292:	e45e                	sd	s7,8(sp)
    80000294:	892a                	mv	s2,a0
    80000296:	89ae                	mv	s3,a1
    80000298:	8a32                	mv	s4,a2
    8000029a:	4485                	li	s1,1
    8000029c:	01fa5a9b          	srlw	s5,s4,0x1f
    800002a0:	014a8abb          	addw	s5,s5,s4
    800002a4:	401ad41b          	sraw	s0,s5,0x1
    800002a8:	8aa2                	mv	s5,s0
    800002aa:	2144d163          	bge	s1,s4,800004ac <node_8.part.0+0x22c>
    800002ae:	4781                	li	a5,0
    800002b0:	014984b3          	add	s1,s3,s4
    800002b4:	00f40833          	add	a6,s0,a5
    800002b8:	00f98733          	add	a4,s3,a5
    800002bc:	984e                	add	a6,a6,s3
    800002be:	00074703          	lbu	a4,0(a4)
    800002c2:	00084603          	lbu	a2,0(a6)
    800002c6:	00c7072b          	pl.f	a4,a4,a2
    800002ca:	00f48633          	add	a2,s1,a5
    800002ce:	0785                	add	a5,a5,1 # 10000001 <_start-0x6fffffff>
    800002d0:	00e60023          	sb	a4,0(a2) # 10000000 <_start-0x70000000>
    800002d4:	0007871b          	sext.w	a4,a5
    800002d8:	fc874ee3          	blt	a4,s0,800002b4 <node_8.part.0+0x34>
    800002dc:	4785                	li	a5,1
    800002de:	00890b33          	add	s6,s2,s0
    800002e2:	00868bb3          	add	s7,a3,s0
    800002e6:	1af40a63          	beq	s0,a5,8000049a <node_8.part.0+0x21a>
    800002ea:	8622                	mv	a2,s0
    800002ec:	85a6                	mv	a1,s1
    800002ee:	854a                	mv	a0,s2
    800002f0:	f91ff0ef          	jal	80000280 <node_8.part.0>
    800002f4:	4781                	li	a5,0
    800002f6:	00f406b3          	add	a3,s0,a5
    800002fa:	00f90733          	add	a4,s2,a5
    800002fe:	00f985b3          	add	a1,s3,a5
    80000302:	96ce                	add	a3,a3,s3
    80000304:	00074703          	lbu	a4,0(a4)
    80000308:	0005c583          	lbu	a1,0(a1)
    8000030c:	0006c683          	lbu	a3,0(a3)
    80000310:	6eb7072b          	pl3.g	a4,a4,a1,# internal error, undefined modifier (r)
    80000314:	00f486b3          	add	a3,s1,a5
    80000318:	0785                	add	a5,a5,1
    8000031a:	00e68023          	sb	a4,0(a3)
    8000031e:	0007871b          	sext.w	a4,a5
    80000322:	fc874ae3          	blt	a4,s0,800002f6 <node_8.part.0+0x76>
    80000326:	4985                	li	s3,1
    80000328:	17340063          	beq	s0,s3,80000488 <node_8.part.0+0x208>
    8000032c:	86de                	mv	a3,s7
    8000032e:	8622                	mv	a2,s0
    80000330:	85a6                	mv	a1,s1
    80000332:	855a                	mv	a0,s6
    80000334:	f4dff0ef          	jal	80000280 <node_8.part.0>
    80000338:	0349da63          	bge	s3,s4,8000036c <node_8.part.0+0xec>
    8000033c:	47bd                	li	a5,15
    8000033e:	0147d663          	bge	a5,s4,8000034a <node_8.part.0+0xca>
    80000342:	016967b3          	or	a5,s2,s6
    80000346:	8b9d                	and	a5,a5,7
    80000348:	cf8d                	beqz	a5,80000382 <node_8.part.0+0x102>
    8000034a:	854a                	mv	a0,s2
    8000034c:	4781                	li	a5,0
    8000034e:	00fb0733          	add	a4,s6,a5
    80000352:	00054603          	lbu	a2,0(a0)
    80000356:	00074703          	lbu	a4,0(a4)
    8000035a:	0785                	add	a5,a5,1
    8000035c:	0007869b          	sext.w	a3,a5
    80000360:	8f31                	xor	a4,a4,a2
    80000362:	00e50023          	sb	a4,0(a0)
    80000366:	0505                	add	a0,a0,1
    80000368:	fe86c3e3          	blt	a3,s0,8000034e <node_8.part.0+0xce>
    8000036c:	60a6                	ld	ra,72(sp)
    8000036e:	6406                	ld	s0,64(sp)
    80000370:	74e2                	ld	s1,56(sp)
    80000372:	7942                	ld	s2,48(sp)
    80000374:	79a2                	ld	s3,40(sp)
    80000376:	7a02                	ld	s4,32(sp)
    80000378:	6ae2                	ld	s5,24(sp)
    8000037a:	6b42                	ld	s6,16(sp)
    8000037c:	6ba2                	ld	s7,8(sp)
    8000037e:	6161                	add	sp,sp,80
    80000380:	8082                	ret
    80000382:	4785                	li	a5,1
    80000384:	0149d363          	bge	s3,s4,8000038a <node_8.part.0+0x10a>
    80000388:	87d6                	mv	a5,s5
    8000038a:	0037d61b          	srlw	a2,a5,0x3
    8000038e:	060e                	sll	a2,a2,0x3
    80000390:	0007859b          	sext.w	a1,a5
    80000394:	855a                	mv	a0,s6
    80000396:	87ca                	mv	a5,s2
    80000398:	965a                	add	a2,a2,s6
    8000039a:	6118                	ld	a4,0(a0)
    8000039c:	6394                	ld	a3,0(a5)
    8000039e:	07a1                	add	a5,a5,8
    800003a0:	0521                	add	a0,a0,8
    800003a2:	8f35                	xor	a4,a4,a3
    800003a4:	fee7bc23          	sd	a4,-8(a5)
    800003a8:	fec519e3          	bne	a0,a2,8000039a <node_8.part.0+0x11a>
    800003ac:	ff85f713          	and	a4,a1,-8
    800003b0:	0075f693          	and	a3,a1,7
    800003b4:	87ba                	mv	a5,a4
    800003b6:	dadd                	beqz	a3,8000036c <node_8.part.0+0xec>
    800003b8:	1702                	sll	a4,a4,0x20
    800003ba:	9301                	srl	a4,a4,0x20
    800003bc:	00fa86bb          	addw	a3,s5,a5
    800003c0:	974a                	add	a4,a4,s2
    800003c2:	96ca                	add	a3,a3,s2
    800003c4:	0006c583          	lbu	a1,0(a3)
    800003c8:	00074503          	lbu	a0,0(a4)
    800003cc:	0017861b          	addw	a2,a5,1
    800003d0:	8da9                	xor	a1,a1,a0
    800003d2:	00b70023          	sb	a1,0(a4)
    800003d6:	f8865be3          	bge	a2,s0,8000036c <node_8.part.0+0xec>
    800003da:	015606bb          	addw	a3,a2,s5
    800003de:	96ca                	add	a3,a3,s2
    800003e0:	964a                	add	a2,a2,s2
    800003e2:	0006c583          	lbu	a1,0(a3)
    800003e6:	00064503          	lbu	a0,0(a2)
    800003ea:	0027869b          	addw	a3,a5,2
    800003ee:	8da9                	xor	a1,a1,a0
    800003f0:	00b60023          	sb	a1,0(a2)
    800003f4:	f686dce3          	bge	a3,s0,8000036c <node_8.part.0+0xec>
    800003f8:	00da873b          	addw	a4,s5,a3
    800003fc:	974a                	add	a4,a4,s2
    800003fe:	96ca                	add	a3,a3,s2
    80000400:	00074583          	lbu	a1,0(a4)
    80000404:	0006c503          	lbu	a0,0(a3)
    80000408:	0037861b          	addw	a2,a5,3
    8000040c:	8da9                	xor	a1,a1,a0
    8000040e:	00b68023          	sb	a1,0(a3)
    80000412:	f4865de3          	bge	a2,s0,8000036c <node_8.part.0+0xec>
    80000416:	00ca873b          	addw	a4,s5,a2
    8000041a:	974a                	add	a4,a4,s2
    8000041c:	964a                	add	a2,a2,s2
    8000041e:	00074583          	lbu	a1,0(a4)
    80000422:	00064503          	lbu	a0,0(a2)
    80000426:	0047869b          	addw	a3,a5,4
    8000042a:	8da9                	xor	a1,a1,a0
    8000042c:	00b60023          	sb	a1,0(a2)
    80000430:	f286dee3          	bge	a3,s0,8000036c <node_8.part.0+0xec>
    80000434:	00da873b          	addw	a4,s5,a3
    80000438:	974a                	add	a4,a4,s2
    8000043a:	96ca                	add	a3,a3,s2
    8000043c:	00074583          	lbu	a1,0(a4)
    80000440:	0006c503          	lbu	a0,0(a3)
    80000444:	0057861b          	addw	a2,a5,5
    80000448:	8da9                	xor	a1,a1,a0
    8000044a:	00b68023          	sb	a1,0(a3)
    8000044e:	f0865fe3          	bge	a2,s0,8000036c <node_8.part.0+0xec>
    80000452:	00ca873b          	addw	a4,s5,a2
    80000456:	974a                	add	a4,a4,s2
    80000458:	964a                	add	a2,a2,s2
    8000045a:	00074683          	lbu	a3,0(a4)
    8000045e:	00064583          	lbu	a1,0(a2)
    80000462:	0067871b          	addw	a4,a5,6
    80000466:	8ead                	xor	a3,a3,a1
    80000468:	00d60023          	sb	a3,0(a2)
    8000046c:	f08750e3          	bge	a4,s0,8000036c <node_8.part.0+0xec>
    80000470:	00ea87bb          	addw	a5,s5,a4
    80000474:	97ca                	add	a5,a5,s2
    80000476:	974a                	add	a4,a4,s2
    80000478:	0007c783          	lbu	a5,0(a5)
    8000047c:	00074683          	lbu	a3,0(a4)
    80000480:	8fb5                	xor	a5,a5,a3
    80000482:	00f70023          	sb	a5,0(a4)
    80000486:	b5dd                	j	8000036c <node_8.part.0+0xec>
    80000488:	0004c783          	lbu	a5,0(s1)
    8000048c:	000bc703          	lbu	a4,0(s7)
    80000490:	00e797ab          	pl.r	a5,a5,a4
    80000494:	00fb0023          	sb	a5,0(s6)
    80000498:	bd4d                	j	8000034a <node_8.part.0+0xca>
    8000049a:	0004c783          	lbu	a5,0(s1)
    8000049e:	0006c703          	lbu	a4,0(a3)
    800004a2:	00e797ab          	pl.r	a5,a5,a4
    800004a6:	00f90023          	sb	a5,0(s2)
    800004aa:	b5a9                	j	800002f4 <node_8.part.0+0x74>
    800004ac:	99d2                	add	s3,s3,s4
    800004ae:	854a                	mv	a0,s2
    800004b0:	8622                	mv	a2,s0
    800004b2:	85ce                	mv	a1,s3
    800004b4:	00868ab3          	add	s5,a3,s0
    800004b8:	dc9ff0ef          	jal	80000280 <node_8.part.0>
    800004bc:	9922                	add	s2,s2,s0
    800004be:	8a22                	mv	s4,s0
    800004c0:	86d6                	mv	a3,s5
    800004c2:	bbe9                	j	8000029c <node_8.part.0+0x1c>

00000000800004c4 <func_f>:
    800004c4:	4075561b          	sraw	a2,a0,0x7
    800004c8:	4075d69b          	sraw	a3,a1,0x7
    800004cc:	00c547b3          	xor	a5,a0,a2
    800004d0:	00d5c733          	xor	a4,a1,a3
    800004d4:	9f91                	subw	a5,a5,a2
    800004d6:	9f15                	subw	a4,a4,a3
    800004d8:	0187961b          	sllw	a2,a5,0x18
    800004dc:	0187169b          	sllw	a3,a4,0x18
    800004e0:	4186561b          	sraw	a2,a2,0x18
    800004e4:	4186d69b          	sraw	a3,a3,0x18
    800004e8:	00c6d363          	bge	a3,a2,800004ee <func_f+0x2a>
    800004ec:	87ba                	mv	a5,a4
    800004ee:	8da9                	xor	a1,a1,a0
    800004f0:	0187951b          	sllw	a0,a5,0x18
    800004f4:	4185551b          	sraw	a0,a0,0x18
    800004f8:	0005c363          	bltz	a1,800004fe <func_f+0x3a>
    800004fc:	8082                	ret
    800004fe:	40f007bb          	negw	a5,a5
    80000502:	0187951b          	sllw	a0,a5,0x18
    80000506:	4185551b          	sraw	a0,a0,0x18
    8000050a:	8082                	ret

000000008000050c <func_r>:
    8000050c:	e581                	bnez	a1,80000514 <func_r+0x8>
    8000050e:	00052513          	slti	a0,a0,0
    80000512:	8082                	ret
    80000514:	4501                	li	a0,0
    80000516:	8082                	ret

0000000080000518 <sat>:
    80000518:	07e00793          	li	a5,126
    8000051c:	00a7cb63          	blt	a5,a0,80000532 <sat+0x1a>
    80000520:	f8200793          	li	a5,-126
    80000524:	00f54a63          	blt	a0,a5,80000538 <sat+0x20>
    80000528:	0185151b          	sllw	a0,a0,0x18
    8000052c:	4185551b          	sraw	a0,a0,0x18
    80000530:	8082                	ret
    80000532:	07f00513          	li	a0,127
    80000536:	8082                	ret
    80000538:	f8100513          	li	a0,-127
    8000053c:	8082                	ret

000000008000053e <func_g>:
    8000053e:	e901                	bnez	a0,8000054e <func_g+0x10>
    80000540:	00c5a5ab          	pl.addsat	a1,a1,a2
    80000544:	0185951b          	sllw	a0,a1,0x18
    80000548:	4185551b          	sraw	a0,a0,0x18
    8000054c:	8082                	ret
    8000054e:	00b6362b          	pl.subsat	a2,a2,a1
    80000552:	0186151b          	sllw	a0,a2,0x18
    80000556:	4185551b          	sraw	a0,a0,0x18
    8000055a:	8082                	ret

000000008000055c <node_8>:
    8000055c:	4885                	li	a7,1
    8000055e:	8736                	mv	a4,a3
    80000560:	01160363          	beq	a2,a7,80000566 <node_8+0xa>
    80000564:	bb31                	j	80000280 <node_8.part.0>
    80000566:	0005c683          	lbu	a3,0(a1)
    8000056a:	00074703          	lbu	a4,0(a4)
    8000056e:	00e6972b          	pl.r	a4,a3,a4
    80000572:	00e50023          	sb	a4,0(a0)
    80000576:	8082                	ret

0000000080000578 <node>:
    80000578:	7175                	add	sp,sp,-144
    8000057a:	ecd6                	sd	s5,88(sp)
    8000057c:	9f818a93          	add	s5,gp,-1544 # 80002438 <fb_table_tileN>
    80000580:	000ab703          	ld	a4,0(s5)
    80000584:	e122                	sd	s0,128(sp)
    80000586:	fca6                	sd	s1,120(sp)
    80000588:	f8ca                	sd	s2,112(sp)
    8000058a:	f4ce                	sd	s3,104(sp)
    8000058c:	f0d2                	sd	s4,96(sp)
    8000058e:	e8da                	sd	s6,80(sp)
    80000590:	e506                	sd	ra,136(sp)
    80000592:	e4de                	sd	s7,72(sp)
    80000594:	e0e2                	sd	s8,64(sp)
    80000596:	fc66                	sd	s9,56(sp)
    80000598:	f86a                	sd	s10,48(sp)
    8000059a:	f46e                	sd	s11,40(sp)
    8000059c:	00170793          	add	a5,a4,1
    800005a0:	00fab023          	sd	a5,0(s5)
    800005a4:	01f65a1b          	srlw	s4,a2,0x1f
    800005a8:	00074783          	lbu	a5,0(a4)
    800005ac:	00ca0a3b          	addw	s4,s4,a2
    800005b0:	401a541b          	sraw	s0,s4,0x1
    800005b4:	89b2                	mv	s3,a2
    800005b6:	8a22                	mv	s4,s0
    800005b8:	892a                	mv	s2,a0
    800005ba:	84ae                	mv	s1,a1
    800005bc:	8b36                	mv	s6,a3
    800005be:	10079263          	bnez	a5,800006c2 <node+0x14a>
    800005c2:	4685                	li	a3,1
    800005c4:	4ac6dd63          	bge	a3,a2,80000a7e <node+0x506>
    800005c8:	00f90733          	add	a4,s2,a5
    800005cc:	00074503          	lbu	a0,0(a4)
    800005d0:	00878733          	add	a4,a5,s0
    800005d4:	00f485b3          	add	a1,s1,a5
    800005d8:	9726                	add	a4,a4,s1
    800005da:	00058603          	lb	a2,0(a1)
    800005de:	00070703          	lb	a4,0(a4)
    800005e2:	e955                	bnez	a0,80000696 <node+0x11e>
    800005e4:	00e6262b          	pl.addsat	a2,a2,a4
    800005e8:	01378733          	add	a4,a5,s3
    800005ec:	9726                	add	a4,a4,s1
    800005ee:	0785                	add	a5,a5,1
    800005f0:	00c70023          	sb	a2,0(a4)
    800005f4:	0007871b          	sext.w	a4,a5
    800005f8:	fc8748e3          	blt	a4,s0,800005c8 <node+0x50>
    800005fc:	000ab783          	ld	a5,0(s5)
    80000600:	00178713          	add	a4,a5,1
    80000604:	00eab023          	sd	a4,0(s5)
    80000608:	0007c703          	lbu	a4,0(a5)
    8000060c:	cb15                	beqz	a4,80000640 <node+0xc8>
    8000060e:	4785                	li	a5,1
    80000610:	48f70963          	beq	a4,a5,80000aa2 <node+0x52a>
    80000614:	4689                	li	a3,2
    80000616:	56d70163          	beq	a4,a3,80000b78 <node+0x600>
    8000061a:	468d                	li	a3,3
    8000061c:	3ed70e63          	beq	a4,a3,80000a18 <node+0x4a0>
    80000620:	ff09871b          	addw	a4,s3,-16
    80000624:	94ce                	add	s1,s1,s3
    80000626:	1ae7f1e3          	bgeu	a5,a4,80000fc8 <node+0xa50>
    8000062a:	008b06b3          	add	a3,s6,s0
    8000062e:	8622                	mv	a2,s0
    80000630:	85a6                	mv	a1,s1
    80000632:	00890533          	add	a0,s2,s0
    80000636:	f43ff0ef          	jal	80000578 <node>
    8000063a:	4785                	li	a5,1
    8000063c:	0337de63          	bge	a5,s3,80000678 <node+0x100>
    80000640:	47bd                	li	a5,15
    80000642:	0137d963          	bge	a5,s3,80000654 <node+0xdc>
    80000646:	00890733          	add	a4,s2,s0
    8000064a:	00e967b3          	or	a5,s2,a4
    8000064e:	8b9d                	and	a5,a5,7
    80000650:	12078863          	beqz	a5,80000780 <node+0x208>
    80000654:	874a                	mv	a4,s2
    80000656:	4781                	li	a5,0
    80000658:	00f406b3          	add	a3,s0,a5
    8000065c:	96ca                	add	a3,a3,s2
    8000065e:	00074583          	lbu	a1,0(a4)
    80000662:	0006c683          	lbu	a3,0(a3)
    80000666:	0785                	add	a5,a5,1
    80000668:	0007861b          	sext.w	a2,a5
    8000066c:	8ead                	xor	a3,a3,a1
    8000066e:	00d70023          	sb	a3,0(a4)
    80000672:	0705                	add	a4,a4,1
    80000674:	fe8642e3          	blt	a2,s0,80000658 <node+0xe0>
    80000678:	60aa                	ld	ra,136(sp)
    8000067a:	640a                	ld	s0,128(sp)
    8000067c:	74e6                	ld	s1,120(sp)
    8000067e:	7946                	ld	s2,112(sp)
    80000680:	79a6                	ld	s3,104(sp)
    80000682:	7a06                	ld	s4,96(sp)
    80000684:	6ae6                	ld	s5,88(sp)
    80000686:	6b46                	ld	s6,80(sp)
    80000688:	6ba6                	ld	s7,72(sp)
    8000068a:	6c06                	ld	s8,64(sp)
    8000068c:	7ce2                	ld	s9,56(sp)
    8000068e:	7d42                	ld	s10,48(sp)
    80000690:	7da2                	ld	s11,40(sp)
    80000692:	6149                	add	sp,sp,144
    80000694:	8082                	ret
    80000696:	00c7372b          	pl.subsat	a4,a4,a2
    8000069a:	013786b3          	add	a3,a5,s3
    8000069e:	96a6                	add	a3,a3,s1
    800006a0:	0785                	add	a5,a5,1
    800006a2:	00e68023          	sb	a4,0(a3)
    800006a6:	0007871b          	sext.w	a4,a5
    800006aa:	f0874fe3          	blt	a4,s0,800005c8 <node+0x50>
    800006ae:	000ab783          	ld	a5,0(s5)
    800006b2:	00178713          	add	a4,a5,1
    800006b6:	00eab023          	sd	a4,0(s5)
    800006ba:	0007c703          	lbu	a4,0(a5)
    800006be:	d349                	beqz	a4,80000640 <node+0xc8>
    800006c0:	b7b9                	j	8000060e <node+0x96>
    800006c2:	4705                	li	a4,1
    800006c4:	1ce78363          	beq	a5,a4,8000088a <node+0x312>
    800006c8:	4609                	li	a2,2
    800006ca:	40c78363          	beq	a5,a2,80000ad0 <node+0x558>
    800006ce:	460d                	li	a2,3
    800006d0:	24c78f63          	beq	a5,a2,8000092e <node+0x3b6>
    800006d4:	ff09879b          	addw	a5,s3,-16
    800006d8:	64f77463          	bgeu	a4,a5,80000d20 <node+0x7a8>
    800006dc:	4781                	li	a5,0
    800006de:	01358c33          	add	s8,a1,s3
    800006e2:	00858bb3          	add	s7,a1,s0
    800006e6:	353756e3          	bge	a4,s3,80001232 <node+0xcba>
    800006ea:	00f48733          	add	a4,s1,a5
    800006ee:	00fb86b3          	add	a3,s7,a5
    800006f2:	00074703          	lbu	a4,0(a4)
    800006f6:	0006c683          	lbu	a3,0(a3)
    800006fa:	00d7072b          	pl.f	a4,a4,a3
    800006fe:	00fc06b3          	add	a3,s8,a5
    80000702:	0785                	add	a5,a5,1
    80000704:	00e68023          	sb	a4,0(a3)
    80000708:	0007871b          	sext.w	a4,a5
    8000070c:	fc874fe3          	blt	a4,s0,800006ea <node+0x172>
    80000710:	86da                	mv	a3,s6
    80000712:	8622                	mv	a2,s0
    80000714:	85e2                	mv	a1,s8
    80000716:	854a                	mv	a0,s2
    80000718:	e61ff0ef          	jal	80000578 <node>
    8000071c:	4781                	li	a5,0
    8000071e:	00f90733          	add	a4,s2,a5
    80000722:	00074603          	lbu	a2,0(a4)
    80000726:	00f486b3          	add	a3,s1,a5
    8000072a:	00fb8733          	add	a4,s7,a5
    8000072e:	00068683          	lb	a3,0(a3)
    80000732:	00070703          	lb	a4,0(a4)
    80000736:	ea0d                	bnez	a2,80000768 <node+0x1f0>
    80000738:	00e6a6ab          	pl.addsat	a3,a3,a4
    8000073c:	00fc0733          	add	a4,s8,a5
    80000740:	0785                	add	a5,a5,1
    80000742:	00d70023          	sb	a3,0(a4)
    80000746:	0007871b          	sext.w	a4,a5
    8000074a:	ea8759e3          	bge	a4,s0,800005fc <node+0x84>
    8000074e:	00f90733          	add	a4,s2,a5
    80000752:	00074603          	lbu	a2,0(a4)
    80000756:	00f486b3          	add	a3,s1,a5
    8000075a:	00fb8733          	add	a4,s7,a5
    8000075e:	00068683          	lb	a3,0(a3)
    80000762:	00070703          	lb	a4,0(a4)
    80000766:	da69                	beqz	a2,80000738 <node+0x1c0>
    80000768:	00d7372b          	pl.subsat	a4,a4,a3
    8000076c:	00fc06b3          	add	a3,s8,a5
    80000770:	0785                	add	a5,a5,1
    80000772:	00e68023          	sb	a4,0(a3)
    80000776:	0007871b          	sext.w	a4,a5
    8000077a:	fa8742e3          	blt	a4,s0,8000071e <node+0x1a6>
    8000077e:	bdbd                	j	800005fc <node+0x84>
    80000780:	4685                	li	a3,1
    80000782:	4785                	li	a5,1
    80000784:	1136c163          	blt	a3,s3,80000886 <node+0x30e>
    80000788:	0037d59b          	srlw	a1,a5,0x3
    8000078c:	058e                	sll	a1,a1,0x3
    8000078e:	0007851b          	sext.w	a0,a5
    80000792:	95ca                	add	a1,a1,s2
    80000794:	87ca                	mv	a5,s2
    80000796:	6314                	ld	a3,0(a4)
    80000798:	6390                	ld	a2,0(a5)
    8000079a:	07a1                	add	a5,a5,8
    8000079c:	0721                	add	a4,a4,8
    8000079e:	8eb1                	xor	a3,a3,a2
    800007a0:	fed7bc23          	sd	a3,-8(a5)
    800007a4:	fef599e3          	bne	a1,a5,80000796 <node+0x21e>
    800007a8:	ff857713          	and	a4,a0,-8
    800007ac:	00757693          	and	a3,a0,7
    800007b0:	87ba                	mv	a5,a4
    800007b2:	ec0683e3          	beqz	a3,80000678 <node+0x100>
    800007b6:	1702                	sll	a4,a4,0x20
    800007b8:	9301                	srl	a4,a4,0x20
    800007ba:	00fa06bb          	addw	a3,s4,a5
    800007be:	974a                	add	a4,a4,s2
    800007c0:	96ca                	add	a3,a3,s2
    800007c2:	0006c583          	lbu	a1,0(a3)
    800007c6:	00074503          	lbu	a0,0(a4)
    800007ca:	0017861b          	addw	a2,a5,1
    800007ce:	8da9                	xor	a1,a1,a0
    800007d0:	00b70023          	sb	a1,0(a4)
    800007d4:	ea8652e3          	bge	a2,s0,80000678 <node+0x100>
    800007d8:	014606bb          	addw	a3,a2,s4
    800007dc:	96ca                	add	a3,a3,s2
    800007de:	964a                	add	a2,a2,s2
    800007e0:	0006c583          	lbu	a1,0(a3)
    800007e4:	00064503          	lbu	a0,0(a2)
    800007e8:	0027869b          	addw	a3,a5,2
    800007ec:	8da9                	xor	a1,a1,a0
    800007ee:	00b60023          	sb	a1,0(a2)
    800007f2:	e886d3e3          	bge	a3,s0,80000678 <node+0x100>
    800007f6:	0146873b          	addw	a4,a3,s4
    800007fa:	974a                	add	a4,a4,s2
    800007fc:	96ca                	add	a3,a3,s2
    800007fe:	00074583          	lbu	a1,0(a4)
    80000802:	0006c503          	lbu	a0,0(a3)
    80000806:	0037861b          	addw	a2,a5,3
    8000080a:	8da9                	xor	a1,a1,a0
    8000080c:	00b68023          	sb	a1,0(a3)
    80000810:	e68654e3          	bge	a2,s0,80000678 <node+0x100>
    80000814:	0146073b          	addw	a4,a2,s4
    80000818:	974a                	add	a4,a4,s2
    8000081a:	964a                	add	a2,a2,s2
    8000081c:	00074583          	lbu	a1,0(a4)
    80000820:	00064503          	lbu	a0,0(a2)
    80000824:	0047869b          	addw	a3,a5,4
    80000828:	8da9                	xor	a1,a1,a0
    8000082a:	00b60023          	sb	a1,0(a2)
    8000082e:	e486d5e3          	bge	a3,s0,80000678 <node+0x100>
    80000832:	0146873b          	addw	a4,a3,s4
    80000836:	974a                	add	a4,a4,s2
    80000838:	96ca                	add	a3,a3,s2
    8000083a:	00074583          	lbu	a1,0(a4)
    8000083e:	0006c503          	lbu	a0,0(a3)
    80000842:	0057861b          	addw	a2,a5,5
    80000846:	8da9                	xor	a1,a1,a0
    80000848:	00b68023          	sb	a1,0(a3)
    8000084c:	e28656e3          	bge	a2,s0,80000678 <node+0x100>
    80000850:	0146073b          	addw	a4,a2,s4
    80000854:	974a                	add	a4,a4,s2
    80000856:	964a                	add	a2,a2,s2
    80000858:	00074683          	lbu	a3,0(a4)
    8000085c:	00064583          	lbu	a1,0(a2)
    80000860:	0067871b          	addw	a4,a5,6
    80000864:	8ead                	xor	a3,a3,a1
    80000866:	00d60023          	sb	a3,0(a2)
    8000086a:	e08757e3          	bge	a4,s0,80000678 <node+0x100>
    8000086e:	014707bb          	addw	a5,a4,s4
    80000872:	97ca                	add	a5,a5,s2
    80000874:	974a                	add	a4,a4,s2
    80000876:	0007c783          	lbu	a5,0(a5)
    8000087a:	00074683          	lbu	a3,0(a4)
    8000087e:	8fb5                	xor	a5,a5,a3
    80000880:	00f70023          	sb	a5,0(a4)
    80000884:	bbd5                	j	80000678 <node+0x100>
    80000886:	87d2                	mv	a5,s4
    80000888:	b701                	j	80000788 <node+0x210>
    8000088a:	1ac7d8e3          	bge	a5,a2,8000123a <node+0xcc2>
    8000088e:	95b2                	add	a1,a1,a2
    80000890:	86ae                	mv	a3,a1
    80000892:	4701                	li	a4,0
    80000894:	00848bb3          	add	s7,s1,s0
    80000898:	4501                	li	a0,0
    8000089a:	00e487b3          	add	a5,s1,a4
    8000089e:	00eb8633          	add	a2,s7,a4
    800008a2:	0007c783          	lbu	a5,0(a5)
    800008a6:	00064603          	lbu	a2,0(a2)
    800008aa:	00c787ab          	pl.f	a5,a5,a2
    800008ae:	00f68023          	sb	a5,0(a3)
    800008b2:	00a797ab          	pl.r	a5,a5,a0
    800008b6:	00e90633          	add	a2,s2,a4
    800008ba:	0705                	add	a4,a4,1
    800008bc:	00f60023          	sb	a5,0(a2)
    800008c0:	0007079b          	sext.w	a5,a4
    800008c4:	0685                	add	a3,a3,1
    800008c6:	fc87cae3          	blt	a5,s0,8000089a <node+0x322>
    800008ca:	4781                	li	a5,0
    800008cc:	00f90733          	add	a4,s2,a5
    800008d0:	00074603          	lbu	a2,0(a4)
    800008d4:	00f486b3          	add	a3,s1,a5
    800008d8:	00fb8733          	add	a4,s7,a5
    800008dc:	00068683          	lb	a3,0(a3)
    800008e0:	00070703          	lb	a4,0(a4)
    800008e4:	ea0d                	bnez	a2,80000916 <node+0x39e>
    800008e6:	00e6a6ab          	pl.addsat	a3,a3,a4
    800008ea:	00f58733          	add	a4,a1,a5
    800008ee:	0785                	add	a5,a5,1
    800008f0:	00d70023          	sb	a3,0(a4)
    800008f4:	0007871b          	sext.w	a4,a5
    800008f8:	d08752e3          	bge	a4,s0,800005fc <node+0x84>
    800008fc:	00f90733          	add	a4,s2,a5
    80000900:	00074603          	lbu	a2,0(a4)
    80000904:	00f486b3          	add	a3,s1,a5
    80000908:	00fb8733          	add	a4,s7,a5
    8000090c:	00068683          	lb	a3,0(a3)
    80000910:	00070703          	lb	a4,0(a4)
    80000914:	da69                	beqz	a2,800008e6 <node+0x36e>
    80000916:	00d7372b          	pl.subsat	a4,a4,a3
    8000091a:	00f586b3          	add	a3,a1,a5
    8000091e:	0785                	add	a5,a5,1
    80000920:	00e68023          	sb	a4,0(a3)
    80000924:	0007871b          	sext.w	a4,a5
    80000928:	fa8742e3          	blt	a4,s0,800008cc <node+0x354>
    8000092c:	b9c1                	j	800005fc <node+0x84>
    8000092e:	113756e3          	bge	a4,s3,8000123a <node+0xcc2>
    80000932:	01358533          	add	a0,a1,s3
    80000936:	85aa                	mv	a1,a0
    80000938:	884a                	mv	a6,s2
    8000093a:	4601                	li	a2,0
    8000093c:	4e01                	li	t3,0
    8000093e:	06400893          	li	a7,100
    80000942:	4e81                	li	t4,0
    80000944:	00848bb3          	add	s7,s1,s0
    80000948:	4301                	li	t1,0
    8000094a:	00c487b3          	add	a5,s1,a2
    8000094e:	00cb8733          	add	a4,s7,a2
    80000952:	0007c783          	lbu	a5,0(a5)
    80000956:	00074703          	lbu	a4,0(a4)
    8000095a:	00e787ab          	pl.f	a5,a5,a4
    8000095e:	00f58023          	sb	a5,0(a1)
    80000962:	006797ab          	pl.r	a5,a5,t1
    80000966:	00f80023          	sb	a5,0(a6)
    8000096a:	00058683          	lb	a3,0(a1)
    8000096e:	0005c703          	lbu	a4,0(a1)
    80000972:	00fec7b3          	xor	a5,t4,a5
    80000976:	4076d69b          	sraw	a3,a3,0x7
    8000097a:	8f35                	xor	a4,a4,a3
    8000097c:	9f15                	subw	a4,a4,a3
    8000097e:	01879e9b          	sllw	t4,a5,0x18
    80000982:	0ff77713          	zext.b	a4,a4
    80000986:	418ede9b          	sraw	t4,t4,0x18
    8000098a:	01175763          	bge	a4,a7,80000998 <node+0x420>
    8000098e:	01861e1b          	sllw	t3,a2,0x18
    80000992:	418e5e1b          	sraw	t3,t3,0x18
    80000996:	88ba                	mv	a7,a4
    80000998:	0605                	add	a2,a2,1
    8000099a:	0006079b          	sext.w	a5,a2
    8000099e:	0585                	add	a1,a1,1
    800009a0:	0805                	add	a6,a6,1
    800009a2:	fa87c4e3          	blt	a5,s0,8000094a <node+0x3d2>
    800009a6:	9e4a                	add	t3,t3,s2
    800009a8:	000e4703          	lbu	a4,0(t3)
    800009ac:	4781                	li	a5,0
    800009ae:	00eeceb3          	xor	t4,t4,a4
    800009b2:	01de0023          	sb	t4,0(t3)
    800009b6:	00f90733          	add	a4,s2,a5
    800009ba:	00074603          	lbu	a2,0(a4)
    800009be:	00f486b3          	add	a3,s1,a5
    800009c2:	00fb8733          	add	a4,s7,a5
    800009c6:	00068683          	lb	a3,0(a3)
    800009ca:	00070703          	lb	a4,0(a4)
    800009ce:	ea0d                	bnez	a2,80000a00 <node+0x488>
    800009d0:	00e6a6ab          	pl.addsat	a3,a3,a4
    800009d4:	00f50733          	add	a4,a0,a5
    800009d8:	0785                	add	a5,a5,1
    800009da:	00d70023          	sb	a3,0(a4)
    800009de:	0007871b          	sext.w	a4,a5
    800009e2:	c0875de3          	bge	a4,s0,800005fc <node+0x84>
    800009e6:	00f90733          	add	a4,s2,a5
    800009ea:	00074603          	lbu	a2,0(a4)
    800009ee:	00f486b3          	add	a3,s1,a5
    800009f2:	00fb8733          	add	a4,s7,a5
    800009f6:	00068683          	lb	a3,0(a3)
    800009fa:	00070703          	lb	a4,0(a4)
    800009fe:	da69                	beqz	a2,800009d0 <node+0x458>
    80000a00:	00d7372b          	pl.subsat	a4,a4,a3
    80000a04:	00f506b3          	add	a3,a0,a5
    80000a08:	0785                	add	a5,a5,1
    80000a0a:	00e68023          	sb	a4,0(a3)
    80000a0e:	0007871b          	sext.w	a4,a5
    80000a12:	fa8742e3          	blt	a4,s0,800009b6 <node+0x43e>
    80000a16:	b6dd                	j	800005fc <node+0x84>
    80000a18:	c737d0e3          	bge	a5,s3,80000678 <node+0x100>
    80000a1c:	94ce                	add	s1,s1,s3
    80000a1e:	00890533          	add	a0,s2,s0
    80000a22:	4581                	li	a1,0
    80000a24:	4301                	li	t1,0
    80000a26:	06400813          	li	a6,100
    80000a2a:	4601                	li	a2,0
    80000a2c:	4881                	li	a7,0
    80000a2e:	0004c683          	lbu	a3,0(s1)
    80000a32:	011696ab          	pl.r	a3,a3,a7
    80000a36:	00d50023          	sb	a3,0(a0)
    80000a3a:	00048703          	lb	a4,0(s1)
    80000a3e:	0004c783          	lbu	a5,0(s1)
    80000a42:	8e35                	xor	a2,a2,a3
    80000a44:	4077571b          	sraw	a4,a4,0x7
    80000a48:	8fb9                	xor	a5,a5,a4
    80000a4a:	9f99                	subw	a5,a5,a4
    80000a4c:	0186161b          	sllw	a2,a2,0x18
    80000a50:	0ff7f793          	zext.b	a5,a5
    80000a54:	4186561b          	sraw	a2,a2,0x18
    80000a58:	0107d763          	bge	a5,a6,80000a66 <node+0x4ee>
    80000a5c:	0185931b          	sllw	t1,a1,0x18
    80000a60:	4183531b          	sraw	t1,t1,0x18
    80000a64:	883e                	mv	a6,a5
    80000a66:	2585                	addw	a1,a1,1
    80000a68:	0485                	add	s1,s1,1
    80000a6a:	0505                	add	a0,a0,1
    80000a6c:	fc85c1e3          	blt	a1,s0,80000a2e <node+0x4b6>
    80000a70:	934a                	add	t1,t1,s2
    80000a72:	00034783          	lbu	a5,0(t1)
    80000a76:	8e3d                	xor	a2,a2,a5
    80000a78:	00c30023          	sb	a2,0(t1)
    80000a7c:	b6d1                	j	80000640 <node+0xc8>
    80000a7e:	00270793          	add	a5,a4,2
    80000a82:	00fab023          	sd	a5,0(s5)
    80000a86:	00174783          	lbu	a5,1(a4)
    80000a8a:	be0787e3          	beqz	a5,80000678 <node+0x100>
    80000a8e:	bed785e3          	beq	a5,a3,80000678 <node+0x100>
    80000a92:	4709                	li	a4,2
    80000a94:	bee782e3          	beq	a5,a4,80000678 <node+0x100>
    80000a98:	470d                	li	a4,3
    80000a9a:	94ce                	add	s1,s1,s3
    80000a9c:	b8e797e3          	bne	a5,a4,8000062a <node+0xb2>
    80000aa0:	bee1                	j	80000678 <node+0x100>
    80000aa2:	4781                	li	a5,0
    80000aa4:	00890633          	add	a2,s2,s0
    80000aa8:	4581                	li	a1,0
    80000aaa:	bd3757e3          	bge	a4,s3,80000678 <node+0x100>
    80000aae:	00f98733          	add	a4,s3,a5
    80000ab2:	9726                	add	a4,a4,s1
    80000ab4:	00074703          	lbu	a4,0(a4)
    80000ab8:	00b7172b          	pl.r	a4,a4,a1
    80000abc:	00f606b3          	add	a3,a2,a5
    80000ac0:	0785                	add	a5,a5,1
    80000ac2:	00e68023          	sb	a4,0(a3)
    80000ac6:	0007871b          	sext.w	a4,a5
    80000aca:	fe8742e3          	blt	a4,s0,80000aae <node+0x536>
    80000ace:	be8d                	j	80000640 <node+0xc8>
    80000ad0:	77375563          	bge	a4,s3,8000123a <node+0xcc2>
    80000ad4:	01358533          	add	a0,a1,s3
    80000ad8:	86aa                	mv	a3,a0
    80000ada:	4701                	li	a4,0
    80000adc:	4601                	li	a2,0
    80000ade:	00858bb3          	add	s7,a1,s0
    80000ae2:	00e487b3          	add	a5,s1,a4
    80000ae6:	00eb85b3          	add	a1,s7,a4
    80000aea:	0007c783          	lbu	a5,0(a5)
    80000aee:	0005c583          	lbu	a1,0(a1)
    80000af2:	00b787ab          	pl.f	a5,a5,a1
    80000af6:	00f68023          	sb	a5,0(a3)
    80000afa:	0705                	add	a4,a4,1
    80000afc:	0187979b          	sllw	a5,a5,0x18
    80000b00:	4187d79b          	sraw	a5,a5,0x18
    80000b04:	0007059b          	sext.w	a1,a4
    80000b08:	9e3d                	addw	a2,a2,a5
    80000b0a:	0685                	add	a3,a3,1
    80000b0c:	fc85cbe3          	blt	a1,s0,80000ae2 <node+0x56a>
    80000b10:	5a064663          	bltz	a2,800010bc <node+0xb44>
    80000b14:	4781                	li	a5,0
    80000b16:	00f90733          	add	a4,s2,a5
    80000b1a:	00074603          	lbu	a2,0(a4)
    80000b1e:	00f486b3          	add	a3,s1,a5
    80000b22:	00fb8733          	add	a4,s7,a5
    80000b26:	00068683          	lb	a3,0(a3)
    80000b2a:	00070703          	lb	a4,0(a4)
    80000b2e:	ea0d                	bnez	a2,80000b60 <node+0x5e8>
    80000b30:	00e6a6ab          	pl.addsat	a3,a3,a4
    80000b34:	00f50733          	add	a4,a0,a5
    80000b38:	0785                	add	a5,a5,1
    80000b3a:	00d70023          	sb	a3,0(a4)
    80000b3e:	0007871b          	sext.w	a4,a5
    80000b42:	aa875de3          	bge	a4,s0,800005fc <node+0x84>
    80000b46:	00f90733          	add	a4,s2,a5
    80000b4a:	00074603          	lbu	a2,0(a4)
    80000b4e:	00f486b3          	add	a3,s1,a5
    80000b52:	00fb8733          	add	a4,s7,a5
    80000b56:	00068683          	lb	a3,0(a3)
    80000b5a:	00070703          	lb	a4,0(a4)
    80000b5e:	da69                	beqz	a2,80000b30 <node+0x5b8>
    80000b60:	00d7372b          	pl.subsat	a4,a4,a3
    80000b64:	00f506b3          	add	a3,a0,a5
    80000b68:	0785                	add	a5,a5,1
    80000b6a:	00e68023          	sb	a4,0(a3)
    80000b6e:	0007871b          	sext.w	a4,a5
    80000b72:	fa8742e3          	blt	a4,s0,80000b16 <node+0x59e>
    80000b76:	b459                	j	800005fc <node+0x84>
    80000b78:	b137d0e3          	bge	a5,s3,80000678 <node+0x100>
    80000b7c:	4781                	li	a5,0
    80000b7e:	4681                	li	a3,0
    80000b80:	00f98733          	add	a4,s3,a5
    80000b84:	9726                	add	a4,a4,s1
    80000b86:	00070603          	lb	a2,0(a4)
    80000b8a:	0785                	add	a5,a5,1
    80000b8c:	0007871b          	sext.w	a4,a5
    80000b90:	9eb1                	addw	a3,a3,a2
    80000b92:	fe8747e3          	blt	a4,s0,80000b80 <node+0x608>
    80000b96:	aad045e3          	bgtz	a3,80000640 <node+0xc8>
    80000b9a:	4785                	li	a5,1
    80000b9c:	4705                	li	a4,1
    80000b9e:	0137d463          	bge	a5,s3,80000ba6 <node+0x62e>
    80000ba2:	000a071b          	sext.w	a4,s4
    80000ba6:	00890633          	add	a2,s2,s0
    80000baa:	40c005bb          	negw	a1,a2
    80000bae:	0075f793          	and	a5,a1,7
    80000bb2:	00778513          	add	a0,a5,7
    80000bb6:	46ad                	li	a3,11
    80000bb8:	00d57363          	bgeu	a0,a3,80000bbe <node+0x646>
    80000bbc:	452d                	li	a0,11
    80000bbe:	4805                	li	a6,1
    80000bc0:	4681                	li	a3,0
    80000bc2:	01385463          	bge	a6,s3,80000bca <node+0x652>
    80000bc6:	fffa069b          	addw	a3,s4,-1
    80000bca:	70a6e063          	bltu	a3,a0,800012ca <node+0xd52>
    80000bce:	70078263          	beqz	a5,800012d2 <node+0xd5a>
    80000bd2:	4685                	li	a3,1
    80000bd4:	00d60023          	sb	a3,0(a2)
    80000bd8:	0065f513          	and	a0,a1,6
    80000bdc:	6e050963          	beqz	a0,800012ce <node+0xd56>
    80000be0:	00d600a3          	sb	a3,1(a2)
    80000be4:	4509                	li	a0,2
    80000be6:	6ef57e63          	bgeu	a0,a5,800012e2 <node+0xd6a>
    80000bea:	00d60123          	sb	a3,2(a2)
    80000bee:	8991                	and	a1,a1,4
    80000bf0:	6e058763          	beqz	a1,800012de <node+0xd66>
    80000bf4:	00d601a3          	sb	a3,3(a2)
    80000bf8:	4591                	li	a1,4
    80000bfa:	6ef5fc63          	bgeu	a1,a5,800012f2 <node+0xd7a>
    80000bfe:	00d60223          	sb	a3,4(a2)
    80000c02:	4595                	li	a1,5
    80000c04:	6eb78563          	beq	a5,a1,800012ee <node+0xd76>
    80000c08:	00d602a3          	sb	a3,5(a2)
    80000c0c:	459d                	li	a1,7
    80000c0e:	6eb79463          	bne	a5,a1,800012f6 <node+0xd7e>
    80000c12:	00d60323          	sb	a3,6(a2)
    80000c16:	451d                	li	a0,7
    80000c18:	40f706bb          	subw	a3,a4,a5
    80000c1c:	0036d71b          	srlw	a4,a3,0x3
    80000c20:	97a2                	add	a5,a5,s0
    80000c22:	97ca                	add	a5,a5,s2
    80000c24:	070e                	sll	a4,a4,0x3
    80000c26:	973e                	add	a4,a4,a5
    80000c28:	00002597          	auipc	a1,0x2
    80000c2c:	8085b583          	ld	a1,-2040(a1) # 80002430 <__SDATA_BEGIN__>
    80000c30:	e38c                	sd	a1,0(a5)
    80000c32:	07a1                	add	a5,a5,8
    80000c34:	fef71ee3          	bne	a4,a5,80000c30 <node+0x6b8>
    80000c38:	ff86f793          	and	a5,a3,-8
    80000c3c:	8a9d                	and	a3,a3,7
    80000c3e:	9fa9                	addw	a5,a5,a0
    80000c40:	a00680e3          	beqz	a3,80000640 <node+0xc8>
    80000c44:	00f906b3          	add	a3,s2,a5
    80000c48:	96a2                	add	a3,a3,s0
    80000c4a:	4705                	li	a4,1
    80000c4c:	00e68023          	sb	a4,0(a3)
    80000c50:	0017869b          	addw	a3,a5,1
    80000c54:	9e86d6e3          	bge	a3,s0,80000640 <node+0xc8>
    80000c58:	96ca                	add	a3,a3,s2
    80000c5a:	96a2                	add	a3,a3,s0
    80000c5c:	00e68023          	sb	a4,0(a3)
    80000c60:	0027869b          	addw	a3,a5,2
    80000c64:	9c86dee3          	bge	a3,s0,80000640 <node+0xc8>
    80000c68:	96ca                	add	a3,a3,s2
    80000c6a:	96a2                	add	a3,a3,s0
    80000c6c:	00e68023          	sb	a4,0(a3)
    80000c70:	0037869b          	addw	a3,a5,3
    80000c74:	9c86d6e3          	bge	a3,s0,80000640 <node+0xc8>
    80000c78:	96ca                	add	a3,a3,s2
    80000c7a:	96a2                	add	a3,a3,s0
    80000c7c:	00e68023          	sb	a4,0(a3)
    80000c80:	0047869b          	addw	a3,a5,4
    80000c84:	9a86dee3          	bge	a3,s0,80000640 <node+0xc8>
    80000c88:	96ca                	add	a3,a3,s2
    80000c8a:	96a2                	add	a3,a3,s0
    80000c8c:	00e68023          	sb	a4,0(a3)
    80000c90:	0057869b          	addw	a3,a5,5
    80000c94:	9a86d6e3          	bge	a3,s0,80000640 <node+0xc8>
    80000c98:	96ca                	add	a3,a3,s2
    80000c9a:	96a2                	add	a3,a3,s0
    80000c9c:	00e68023          	sb	a4,0(a3)
    80000ca0:	0067869b          	addw	a3,a5,6
    80000ca4:	9886dee3          	bge	a3,s0,80000640 <node+0xc8>
    80000ca8:	96ca                	add	a3,a3,s2
    80000caa:	96a2                	add	a3,a3,s0
    80000cac:	00e68023          	sb	a4,0(a3)
    80000cb0:	0077869b          	addw	a3,a5,7
    80000cb4:	9886d6e3          	bge	a3,s0,80000640 <node+0xc8>
    80000cb8:	9636                	add	a2,a2,a3
    80000cba:	00e60023          	sb	a4,0(a2)
    80000cbe:	0087869b          	addw	a3,a5,8
    80000cc2:	9686dfe3          	bge	a3,s0,80000640 <node+0xc8>
    80000cc6:	96ca                	add	a3,a3,s2
    80000cc8:	96a2                	add	a3,a3,s0
    80000cca:	00e68023          	sb	a4,0(a3)
    80000cce:	0097869b          	addw	a3,a5,9
    80000cd2:	9686d7e3          	bge	a3,s0,80000640 <node+0xc8>
    80000cd6:	96ca                	add	a3,a3,s2
    80000cd8:	96a2                	add	a3,a3,s0
    80000cda:	00e68023          	sb	a4,0(a3)
    80000cde:	00a7871b          	addw	a4,a5,10
    80000ce2:	94875fe3          	bge	a4,s0,80000640 <node+0xc8>
    80000ce6:	974a                	add	a4,a4,s2
    80000ce8:	9722                	add	a4,a4,s0
    80000cea:	4685                	li	a3,1
    80000cec:	00d70023          	sb	a3,0(a4)
    80000cf0:	00b7871b          	addw	a4,a5,11
    80000cf4:	948756e3          	bge	a4,s0,80000640 <node+0xc8>
    80000cf8:	974a                	add	a4,a4,s2
    80000cfa:	9722                	add	a4,a4,s0
    80000cfc:	00d70023          	sb	a3,0(a4)
    80000d00:	00c7871b          	addw	a4,a5,12
    80000d04:	92875ee3          	bge	a4,s0,80000640 <node+0xc8>
    80000d08:	974a                	add	a4,a4,s2
    80000d0a:	9722                	add	a4,a4,s0
    80000d0c:	00d70023          	sb	a3,0(a4)
    80000d10:	27b5                	addw	a5,a5,13
    80000d12:	9287d7e3          	bge	a5,s0,80000640 <node+0xc8>
    80000d16:	97ca                	add	a5,a5,s2
    80000d18:	97a2                	add	a5,a5,s0
    80000d1a:	00d78023          	sb	a3,0(a5)
    80000d1e:	b20d                	j	80000640 <node+0xc8>
    80000d20:	0005c783          	lbu	a5,0(a1)
    80000d24:	0085c703          	lbu	a4,8(a1)
    80000d28:	01358bb3          	add	s7,a1,s3
    80000d2c:	00e787ab          	pl.f	a5,a5,a4
    80000d30:	00fb8023          	sb	a5,0(s7)
    80000d34:	00198813          	add	a6,s3,1
    80000d38:	0015c783          	lbu	a5,1(a1)
    80000d3c:	0095c703          	lbu	a4,9(a1)
    80000d40:	982e                	add	a6,a6,a1
    80000d42:	00e787ab          	pl.f	a5,a5,a4
    80000d46:	00f80023          	sb	a5,0(a6)
    80000d4a:	00298713          	add	a4,s3,2
    80000d4e:	0025c783          	lbu	a5,2(a1)
    80000d52:	00a5c603          	lbu	a2,10(a1)
    80000d56:	972e                	add	a4,a4,a1
    80000d58:	00c787ab          	pl.f	a5,a5,a2
    80000d5c:	00f70023          	sb	a5,0(a4)
    80000d60:	00398793          	add	a5,s3,3
    80000d64:	0035c603          	lbu	a2,3(a1)
    80000d68:	97ae                	add	a5,a5,a1
    80000d6a:	00b5c583          	lbu	a1,11(a1)
    80000d6e:	00b6062b          	pl.f	a2,a2,a1
    80000d72:	00c78023          	sb	a2,0(a5)
    80000d76:	00498d13          	add	s10,s3,4
    80000d7a:	0044c603          	lbu	a2,4(s1)
    80000d7e:	00c4c583          	lbu	a1,12(s1)
    80000d82:	9d26                	add	s10,s10,s1
    80000d84:	00b6062b          	pl.f	a2,a2,a1
    80000d88:	00cd0023          	sb	a2,0(s10)
    80000d8c:	00598c93          	add	s9,s3,5
    80000d90:	0054c603          	lbu	a2,5(s1)
    80000d94:	00d4c583          	lbu	a1,13(s1)
    80000d98:	9ca6                	add	s9,s9,s1
    80000d9a:	00b6062b          	pl.f	a2,a2,a1
    80000d9e:	00cc8023          	sb	a2,0(s9)
    80000da2:	00698c13          	add	s8,s3,6
    80000da6:	0064c603          	lbu	a2,6(s1)
    80000daa:	00e4c583          	lbu	a1,14(s1)
    80000dae:	9c26                	add	s8,s8,s1
    80000db0:	00b6062b          	pl.f	a2,a2,a1
    80000db4:	00cc0023          	sb	a2,0(s8)
    80000db8:	00798d93          	add	s11,s3,7
    80000dbc:	0074c603          	lbu	a2,7(s1)
    80000dc0:	00f4c583          	lbu	a1,15(s1)
    80000dc4:	9da6                	add	s11,s11,s1
    80000dc6:	00b6062b          	pl.f	a2,a2,a1
    80000dca:	00cd8023          	sb	a2,0(s11)
    80000dce:	000bc883          	lbu	a7,0(s7)
    80000dd2:	000d4303          	lbu	t1,0(s10)
    80000dd6:	008b8593          	add	a1,s7,8
    80000dda:	006888ab          	pl.f	a7,a7,t1
    80000dde:	011b8423          	sb	a7,8(s7)
    80000de2:	00084883          	lbu	a7,0(a6)
    80000de6:	000cc303          	lbu	t1,0(s9)
    80000dea:	e842                	sd	a6,16(sp)
    80000dec:	006888ab          	pl.f	a7,a7,t1
    80000df0:	011b84a3          	sb	a7,9(s7)
    80000df4:	00074883          	lbu	a7,0(a4)
    80000df8:	000c4303          	lbu	t1,0(s8)
    80000dfc:	e43a                	sd	a4,8(sp)
    80000dfe:	006888ab          	pl.f	a7,a7,t1
    80000e02:	011b8523          	sb	a7,10(s7)
    80000e06:	0007c883          	lbu	a7,0(a5)
    80000e0a:	e03e                	sd	a5,0(sp)
    80000e0c:	00c888ab          	pl.f	a7,a7,a2
    80000e10:	4611                	li	a2,4
    80000e12:	011b85a3          	sb	a7,11(s7)
    80000e16:	ec2e                	sd	a1,24(sp)
    80000e18:	c68ff0ef          	jal	80000280 <node_8.part.0>
    80000e1c:	00094683          	lbu	a3,0(s2)
    80000e20:	000bc603          	lbu	a2,0(s7)
    80000e24:	000d4503          	lbu	a0,0(s10)
    80000e28:	56c686ab          	pl3.g	a3,a3,a2,# internal error, undefined modifier (r)
    80000e2c:	6842                	ld	a6,16(sp)
    80000e2e:	00db8423          	sb	a3,8(s7)
    80000e32:	00194683          	lbu	a3,1(s2)
    80000e36:	00084603          	lbu	a2,0(a6)
    80000e3a:	000cc503          	lbu	a0,0(s9)
    80000e3e:	56c686ab          	pl3.g	a3,a3,a2,# internal error, undefined modifier (r)
    80000e42:	6722                	ld	a4,8(sp)
    80000e44:	00db84a3          	sb	a3,9(s7)
    80000e48:	00294683          	lbu	a3,2(s2)
    80000e4c:	00074603          	lbu	a2,0(a4)
    80000e50:	000c4503          	lbu	a0,0(s8)
    80000e54:	56c686ab          	pl3.g	a3,a3,a2,# internal error, undefined modifier (r)
    80000e58:	6782                	ld	a5,0(sp)
    80000e5a:	00db8523          	sb	a3,10(s7)
    80000e5e:	00394683          	lbu	a3,3(s2)
    80000e62:	0007c603          	lbu	a2,0(a5)
    80000e66:	000dc503          	lbu	a0,0(s11)
    80000e6a:	56c686ab          	pl3.g	a3,a3,a2,# internal error, undefined modifier (r)
    80000e6e:	65e2                	ld	a1,24(sp)
    80000e70:	4611                	li	a2,4
    80000e72:	00db85a3          	sb	a3,11(s7)
    80000e76:	00490513          	add	a0,s2,4
    80000e7a:	004b0693          	add	a3,s6,4
    80000e7e:	c02ff0ef          	jal	80000280 <node_8.part.0>
    80000e82:	00090883          	lb	a7,0(s2)
    80000e86:	00194583          	lbu	a1,1(s2)
    80000e8a:	00294603          	lbu	a2,2(s2)
    80000e8e:	00394683          	lbu	a3,3(s2)
    80000e92:	00490503          	lb	a0,4(s2)
    80000e96:	00594f03          	lbu	t5,5(s2)
    80000e9a:	00694e83          	lbu	t4,6(s2)
    80000e9e:	00794e03          	lbu	t3,7(s2)
    80000ea2:	00a8c333          	xor	t1,a7,a0
    80000ea6:	01d64633          	xor	a2,a2,t4
    80000eaa:	01c6c6b3          	xor	a3,a3,t3
    80000eae:	01e5c5b3          	xor	a1,a1,t5
    80000eb2:	00690023          	sb	t1,0(s2)
    80000eb6:	00b900a3          	sb	a1,1(s2)
    80000eba:	00c90123          	sb	a2,2(s2)
    80000ebe:	00d901a3          	sb	a3,3(s2)
    80000ec2:	00048683          	lb	a3,0(s1)
    80000ec6:	00848603          	lb	a2,8(s1)
    80000eca:	6782                	ld	a5,0(sp)
    80000ecc:	6722                	ld	a4,8(sp)
    80000ece:	6842                	ld	a6,16(sp)
    80000ed0:	34a88a63          	beq	a7,a0,80001224 <node+0xcac>
    80000ed4:	00d6362b          	pl.subsat	a2,a2,a3
    80000ed8:	0186169b          	sllw	a3,a2,0x18
    80000edc:	4186d69b          	sraw	a3,a3,0x18
    80000ee0:	00db8023          	sb	a3,0(s7)
    80000ee4:	00194583          	lbu	a1,1(s2)
    80000ee8:	00148683          	lb	a3,1(s1)
    80000eec:	00948603          	lb	a2,9(s1)
    80000ef0:	3a058063          	beqz	a1,80001290 <node+0xd18>
    80000ef4:	00d6362b          	pl.subsat	a2,a2,a3
    80000ef8:	0186169b          	sllw	a3,a2,0x18
    80000efc:	4186d69b          	sraw	a3,a3,0x18
    80000f00:	00d80023          	sb	a3,0(a6)
    80000f04:	00294583          	lbu	a1,2(s2)
    80000f08:	00248683          	lb	a3,2(s1)
    80000f0c:	00a48603          	lb	a2,10(s1)
    80000f10:	36058963          	beqz	a1,80001282 <node+0xd0a>
    80000f14:	00d6362b          	pl.subsat	a2,a2,a3
    80000f18:	0186169b          	sllw	a3,a2,0x18
    80000f1c:	4186d69b          	sraw	a3,a3,0x18
    80000f20:	00d70023          	sb	a3,0(a4)
    80000f24:	00394603          	lbu	a2,3(s2)
    80000f28:	00348703          	lb	a4,3(s1)
    80000f2c:	00b48683          	lb	a3,11(s1)
    80000f30:	34060263          	beqz	a2,80001274 <node+0xcfc>
    80000f34:	00e6b6ab          	pl.subsat	a3,a3,a4
    80000f38:	0186971b          	sllw	a4,a3,0x18
    80000f3c:	4187571b          	sraw	a4,a4,0x18
    80000f40:	00e78023          	sb	a4,0(a5)
    80000f44:	00494683          	lbu	a3,4(s2)
    80000f48:	00448783          	lb	a5,4(s1)
    80000f4c:	00c48703          	lb	a4,12(s1)
    80000f50:	30068b63          	beqz	a3,80001266 <node+0xcee>
    80000f54:	00f7372b          	pl.subsat	a4,a4,a5
    80000f58:	0187179b          	sllw	a5,a4,0x18
    80000f5c:	4187d79b          	sraw	a5,a5,0x18
    80000f60:	00fd0023          	sb	a5,0(s10)
    80000f64:	00594683          	lbu	a3,5(s2)
    80000f68:	00548783          	lb	a5,5(s1)
    80000f6c:	00d48703          	lb	a4,13(s1)
    80000f70:	32068e63          	beqz	a3,800012ac <node+0xd34>
    80000f74:	00f7372b          	pl.subsat	a4,a4,a5
    80000f78:	0187179b          	sllw	a5,a4,0x18
    80000f7c:	4187d79b          	sraw	a5,a5,0x18
    80000f80:	00fc8023          	sb	a5,0(s9)
    80000f84:	00694683          	lbu	a3,6(s2)
    80000f88:	00648783          	lb	a5,6(s1)
    80000f8c:	00e48703          	lb	a4,14(s1)
    80000f90:	30068763          	beqz	a3,8000129e <node+0xd26>
    80000f94:	00f7372b          	pl.subsat	a4,a4,a5
    80000f98:	0187179b          	sllw	a5,a4,0x18
    80000f9c:	4187d79b          	sraw	a5,a5,0x18
    80000fa0:	00fc0023          	sb	a5,0(s8)
    80000fa4:	00794683          	lbu	a3,7(s2)
    80000fa8:	00748703          	lb	a4,7(s1)
    80000fac:	00f48783          	lb	a5,15(s1)
    80000fb0:	2a069163          	bnez	a3,80001252 <node+0xcda>
    80000fb4:	00f7272b          	pl.addsat	a4,a4,a5
    80000fb8:	0187179b          	sllw	a5,a4,0x18
    80000fbc:	4187d79b          	sraw	a5,a5,0x18
    80000fc0:	00fd8023          	sb	a5,0(s11)
    80000fc4:	e38ff06f          	j	800005fc <node+0x84>
    80000fc8:	0004c783          	lbu	a5,0(s1)
    80000fcc:	0044c703          	lbu	a4,4(s1)
    80000fd0:	00848a93          	add	s5,s1,8
    80000fd4:	00e787ab          	pl.f	a5,a5,a4
    80000fd8:	00f48423          	sb	a5,8(s1)
    80000fdc:	0054c703          	lbu	a4,5(s1)
    80000fe0:	0014c783          	lbu	a5,1(s1)
    80000fe4:	00e787ab          	pl.f	a5,a5,a4
    80000fe8:	00f484a3          	sb	a5,9(s1)
    80000fec:	0064c703          	lbu	a4,6(s1)
    80000ff0:	0024c783          	lbu	a5,2(s1)
    80000ff4:	00e787ab          	pl.f	a5,a5,a4
    80000ff8:	00f48523          	sb	a5,10(s1)
    80000ffc:	0074c703          	lbu	a4,7(s1)
    80001000:	0034c783          	lbu	a5,3(s1)
    80001004:	00e787ab          	pl.f	a5,a5,a4
    80001008:	4611                	li	a2,4
    8000100a:	00f485a3          	sb	a5,11(s1)
    8000100e:	008b0693          	add	a3,s6,8
    80001012:	85d6                	mv	a1,s5
    80001014:	00890513          	add	a0,s2,8
    80001018:	a68ff0ef          	jal	80000280 <node_8.part.0>
    8000101c:	00894783          	lbu	a5,8(s2)
    80001020:	0004c703          	lbu	a4,0(s1)
    80001024:	0044c683          	lbu	a3,4(s1)
    80001028:	6ee787ab          	pl3.g	a5,a5,a4,# internal error, undefined modifier (r)
    8000102c:	00f48423          	sb	a5,8(s1)
    80001030:	00994783          	lbu	a5,9(s2)
    80001034:	0014c703          	lbu	a4,1(s1)
    80001038:	0054c683          	lbu	a3,5(s1)
    8000103c:	6ee787ab          	pl3.g	a5,a5,a4,# internal error, undefined modifier (r)
    80001040:	00f484a3          	sb	a5,9(s1)
    80001044:	00a94783          	lbu	a5,10(s2)
    80001048:	0024c703          	lbu	a4,2(s1)
    8000104c:	0064c683          	lbu	a3,6(s1)
    80001050:	6ee787ab          	pl3.g	a5,a5,a4,# internal error, undefined modifier (r)
    80001054:	00f48523          	sb	a5,10(s1)
    80001058:	00b94783          	lbu	a5,11(s2)
    8000105c:	0034c703          	lbu	a4,3(s1)
    80001060:	0074c683          	lbu	a3,7(s1)
    80001064:	6ee787ab          	pl3.g	a5,a5,a4,# internal error, undefined modifier (r)
    80001068:	4611                	li	a2,4
    8000106a:	00f485a3          	sb	a5,11(s1)
    8000106e:	00cb0693          	add	a3,s6,12
    80001072:	85d6                	mv	a1,s5
    80001074:	00c90513          	add	a0,s2,12
    80001078:	a08ff0ef          	jal	80000280 <node_8.part.0>
    8000107c:	00894603          	lbu	a2,8(s2)
    80001080:	00994683          	lbu	a3,9(s2)
    80001084:	00a94703          	lbu	a4,10(s2)
    80001088:	00b94783          	lbu	a5,11(s2)
    8000108c:	00c94883          	lbu	a7,12(s2)
    80001090:	00d94803          	lbu	a6,13(s2)
    80001094:	00e94503          	lbu	a0,14(s2)
    80001098:	00f94583          	lbu	a1,15(s2)
    8000109c:	01164633          	xor	a2,a2,a7
    800010a0:	0106c6b3          	xor	a3,a3,a6
    800010a4:	8f29                	xor	a4,a4,a0
    800010a6:	8fad                	xor	a5,a5,a1
    800010a8:	00c90423          	sb	a2,8(s2)
    800010ac:	00d904a3          	sb	a3,9(s2)
    800010b0:	00e90523          	sb	a4,10(s2)
    800010b4:	00f905a3          	sb	a5,11(s2)
    800010b8:	d8eff06f          	j	80000646 <node+0xce>
    800010bc:	4785                	li	a5,1
    800010be:	4705                	li	a4,1
    800010c0:	0137d463          	bge	a5,s3,800010c8 <node+0xb50>
    800010c4:	000a071b          	sext.w	a4,s4
    800010c8:	412006bb          	negw	a3,s2
    800010cc:	0076f793          	and	a5,a3,7
    800010d0:	00778593          	add	a1,a5,7
    800010d4:	462d                	li	a2,11
    800010d6:	00c5f363          	bgeu	a1,a2,800010dc <node+0xb64>
    800010da:	45ad                	li	a1,11
    800010dc:	4805                	li	a6,1
    800010de:	4601                	li	a2,0
    800010e0:	01385463          	bge	a6,s3,800010e8 <node+0xb70>
    800010e4:	fffa061b          	addw	a2,s4,-1
    800010e8:	1cb66d63          	bltu	a2,a1,800012c2 <node+0xd4a>
    800010ec:	1c078763          	beqz	a5,800012ba <node+0xd42>
    800010f0:	4605                	li	a2,1
    800010f2:	00c90023          	sb	a2,0(s2)
    800010f6:	0066f593          	and	a1,a3,6
    800010fa:	1c058263          	beqz	a1,800012be <node+0xd46>
    800010fe:	00c900a3          	sb	a2,1(s2)
    80001102:	4589                	li	a1,2
    80001104:	1cf5f163          	bgeu	a1,a5,800012c6 <node+0xd4e>
    80001108:	00c90123          	sb	a2,2(s2)
    8000110c:	8a91                	and	a3,a3,4
    8000110e:	1c068663          	beqz	a3,800012da <node+0xd62>
    80001112:	00c901a3          	sb	a2,3(s2)
    80001116:	4691                	li	a3,4
    80001118:	1af6ff63          	bgeu	a3,a5,800012d6 <node+0xd5e>
    8000111c:	00c90223          	sb	a2,4(s2)
    80001120:	4695                	li	a3,5
    80001122:	1cd78463          	beq	a5,a3,800012ea <node+0xd72>
    80001126:	00c902a3          	sb	a2,5(s2)
    8000112a:	469d                	li	a3,7
    8000112c:	1ad79d63          	bne	a5,a3,800012e6 <node+0xd6e>
    80001130:	00c90323          	sb	a2,6(s2)
    80001134:	459d                	li	a1,7
    80001136:	40f706bb          	subw	a3,a4,a5
    8000113a:	0036d71b          	srlw	a4,a3,0x3
    8000113e:	97ca                	add	a5,a5,s2
    80001140:	070e                	sll	a4,a4,0x3
    80001142:	973e                	add	a4,a4,a5
    80001144:	00001617          	auipc	a2,0x1
    80001148:	2ec63603          	ld	a2,748(a2) # 80002430 <__SDATA_BEGIN__>
    8000114c:	e390                	sd	a2,0(a5)
    8000114e:	07a1                	add	a5,a5,8
    80001150:	fee79ee3          	bne	a5,a4,8000114c <node+0xbd4>
    80001154:	ff86f793          	and	a5,a3,-8
    80001158:	8a9d                	and	a3,a3,7
    8000115a:	9fad                	addw	a5,a5,a1
    8000115c:	9a068ce3          	beqz	a3,80000b14 <node+0x59c>
    80001160:	00f906b3          	add	a3,s2,a5
    80001164:	4705                	li	a4,1
    80001166:	00e68023          	sb	a4,0(a3)
    8000116a:	0017869b          	addw	a3,a5,1
    8000116e:	9a86d3e3          	bge	a3,s0,80000b14 <node+0x59c>
    80001172:	96ca                	add	a3,a3,s2
    80001174:	00e68023          	sb	a4,0(a3)
    80001178:	0027869b          	addw	a3,a5,2
    8000117c:	9886dce3          	bge	a3,s0,80000b14 <node+0x59c>
    80001180:	96ca                	add	a3,a3,s2
    80001182:	00e68023          	sb	a4,0(a3)
    80001186:	0037869b          	addw	a3,a5,3
    8000118a:	9886d5e3          	bge	a3,s0,80000b14 <node+0x59c>
    8000118e:	96ca                	add	a3,a3,s2
    80001190:	00e68023          	sb	a4,0(a3)
    80001194:	0047869b          	addw	a3,a5,4
    80001198:	9686dee3          	bge	a3,s0,80000b14 <node+0x59c>
    8000119c:	96ca                	add	a3,a3,s2
    8000119e:	00e68023          	sb	a4,0(a3)
    800011a2:	0057869b          	addw	a3,a5,5
    800011a6:	9686d7e3          	bge	a3,s0,80000b14 <node+0x59c>
    800011aa:	96ca                	add	a3,a3,s2
    800011ac:	00e68023          	sb	a4,0(a3)
    800011b0:	0067869b          	addw	a3,a5,6
    800011b4:	9686d0e3          	bge	a3,s0,80000b14 <node+0x59c>
    800011b8:	96ca                	add	a3,a3,s2
    800011ba:	00e68023          	sb	a4,0(a3)
    800011be:	0077869b          	addw	a3,a5,7
    800011c2:	9486d9e3          	bge	a3,s0,80000b14 <node+0x59c>
    800011c6:	96ca                	add	a3,a3,s2
    800011c8:	00e68023          	sb	a4,0(a3)
    800011cc:	0087869b          	addw	a3,a5,8
    800011d0:	9486d2e3          	bge	a3,s0,80000b14 <node+0x59c>
    800011d4:	96ca                	add	a3,a3,s2
    800011d6:	00e68023          	sb	a4,0(a3)
    800011da:	0097869b          	addw	a3,a5,9
    800011de:	9286dbe3          	bge	a3,s0,80000b14 <node+0x59c>
    800011e2:	96ca                	add	a3,a3,s2
    800011e4:	00e68023          	sb	a4,0(a3)
    800011e8:	00a7871b          	addw	a4,a5,10
    800011ec:	928754e3          	bge	a4,s0,80000b14 <node+0x59c>
    800011f0:	00e906b3          	add	a3,s2,a4
    800011f4:	4705                	li	a4,1
    800011f6:	00e68023          	sb	a4,0(a3)
    800011fa:	00b7869b          	addw	a3,a5,11
    800011fe:	9086dbe3          	bge	a3,s0,80000b14 <node+0x59c>
    80001202:	96ca                	add	a3,a3,s2
    80001204:	00e68023          	sb	a4,0(a3)
    80001208:	00c7869b          	addw	a3,a5,12
    8000120c:	9086d4e3          	bge	a3,s0,80000b14 <node+0x59c>
    80001210:	96ca                	add	a3,a3,s2
    80001212:	00e68023          	sb	a4,0(a3)
    80001216:	27b5                	addw	a5,a5,13
    80001218:	8e87dee3          	bge	a5,s0,80000b14 <node+0x59c>
    8000121c:	97ca                	add	a5,a5,s2
    8000121e:	00e78023          	sb	a4,0(a5)
    80001222:	b8cd                	j	80000b14 <node+0x59c>
    80001224:	00c6a6ab          	pl.addsat	a3,a3,a2
    80001228:	0186969b          	sllw	a3,a3,0x18
    8000122c:	4186d69b          	sraw	a3,a3,0x18
    80001230:	b945                	j	80000ee0 <node+0x968>
    80001232:	8622                	mv	a2,s0
    80001234:	85e2                	mv	a1,s8
    80001236:	b42ff0ef          	jal	80000578 <node>
    8000123a:	000ab783          	ld	a5,0(s5)
    8000123e:	00178713          	add	a4,a5,1
    80001242:	00eab023          	sd	a4,0(s5)
    80001246:	0007c703          	lbu	a4,0(a5)
    8000124a:	c2070763          	beqz	a4,80000678 <node+0x100>
    8000124e:	bc0ff06f          	j	8000060e <node+0x96>
    80001252:	00e7b7ab          	pl.subsat	a5,a5,a4
    80001256:	0187979b          	sllw	a5,a5,0x18
    8000125a:	4187d79b          	sraw	a5,a5,0x18
    8000125e:	00fd8023          	sb	a5,0(s11)
    80001262:	b9aff06f          	j	800005fc <node+0x84>
    80001266:	00e7a7ab          	pl.addsat	a5,a5,a4
    8000126a:	0187979b          	sllw	a5,a5,0x18
    8000126e:	4187d79b          	sraw	a5,a5,0x18
    80001272:	b1fd                	j	80000f60 <node+0x9e8>
    80001274:	00d7272b          	pl.addsat	a4,a4,a3
    80001278:	0187171b          	sllw	a4,a4,0x18
    8000127c:	4187571b          	sraw	a4,a4,0x18
    80001280:	b1c1                	j	80000f40 <node+0x9c8>
    80001282:	00c6a6ab          	pl.addsat	a3,a3,a2
    80001286:	0186969b          	sllw	a3,a3,0x18
    8000128a:	4186d69b          	sraw	a3,a3,0x18
    8000128e:	b949                	j	80000f20 <node+0x9a8>
    80001290:	00c6a6ab          	pl.addsat	a3,a3,a2
    80001294:	0186969b          	sllw	a3,a3,0x18
    80001298:	4186d69b          	sraw	a3,a3,0x18
    8000129c:	b195                	j	80000f00 <node+0x988>
    8000129e:	00e7a7ab          	pl.addsat	a5,a5,a4
    800012a2:	0187979b          	sllw	a5,a5,0x18
    800012a6:	4187d79b          	sraw	a5,a5,0x18
    800012aa:	b9dd                	j	80000fa0 <node+0xa28>
    800012ac:	00e7a7ab          	pl.addsat	a5,a5,a4
    800012b0:	0187979b          	sllw	a5,a5,0x18
    800012b4:	4187d79b          	sraw	a5,a5,0x18
    800012b8:	b1e1                	j	80000f80 <node+0xa08>
    800012ba:	4581                	li	a1,0
    800012bc:	bdad                	j	80001136 <node+0xbbe>
    800012be:	4585                	li	a1,1
    800012c0:	bd9d                	j	80001136 <node+0xbbe>
    800012c2:	4781                	li	a5,0
    800012c4:	bd71                	j	80001160 <node+0xbe8>
    800012c6:	4589                	li	a1,2
    800012c8:	b5bd                	j	80001136 <node+0xbbe>
    800012ca:	4781                	li	a5,0
    800012cc:	baa5                	j	80000c44 <node+0x6cc>
    800012ce:	4505                	li	a0,1
    800012d0:	b2a1                	j	80000c18 <node+0x6a0>
    800012d2:	4501                	li	a0,0
    800012d4:	b291                	j	80000c18 <node+0x6a0>
    800012d6:	4591                	li	a1,4
    800012d8:	bdb9                	j	80001136 <node+0xbbe>
    800012da:	458d                	li	a1,3
    800012dc:	bda9                	j	80001136 <node+0xbbe>
    800012de:	450d                	li	a0,3
    800012e0:	ba25                	j	80000c18 <node+0x6a0>
    800012e2:	4509                	li	a0,2
    800012e4:	ba15                	j	80000c18 <node+0x6a0>
    800012e6:	4599                	li	a1,6
    800012e8:	b5b9                	j	80001136 <node+0xbbe>
    800012ea:	4595                	li	a1,5
    800012ec:	b5a9                	j	80001136 <node+0xbbe>
    800012ee:	4515                	li	a0,5
    800012f0:	b225                	j	80000c18 <node+0x6a0>
    800012f2:	4511                	li	a0,4
    800012f4:	b215                	j	80000c18 <node+0x6a0>
    800012f6:	4519                	li	a0,6
    800012f8:	b205                	j	80000c18 <node+0x6a0>

00000000800012fa <node_top>:
    800012fa:	7139                	add	sp,sp,-64
    800012fc:	e05a                	sd	s6,0(sp)
    800012fe:	9f818b13          	add	s6,gp,-1544 # 80002438 <fb_table_tileN>
    80001302:	000b3783          	ld	a5,0(s6)
    80001306:	f04a                	sd	s2,32(sp)
    80001308:	01f6591b          	srlw	s2,a2,0x1f
    8000130c:	f822                	sd	s0,48(sp)
    8000130e:	f426                	sd	s1,40(sp)
    80001310:	ec4e                	sd	s3,24(sp)
    80001312:	e852                	sd	s4,16(sp)
    80001314:	e456                	sd	s5,8(sp)
    80001316:	00c9093b          	addw	s2,s2,a2
    8000131a:	fc06                	sd	ra,56(sp)
    8000131c:	0785                	add	a5,a5,1
    8000131e:	4019541b          	sraw	s0,s2,0x1
    80001322:	00fb3023          	sd	a5,0(s6)
    80001326:	4705                	li	a4,1
    80001328:	8ab2                	mv	s5,a2
    8000132a:	8922                	mv	s2,s0
    8000132c:	8a2a                	mv	s4,a0
    8000132e:	84ae                	mv	s1,a1
    80001330:	89b6                	mv	s3,a3
    80001332:	02c75a63          	bge	a4,a2,80001366 <node_top+0x6c>
    80001336:	4781                	li	a5,0
    80001338:	962e                	add	a2,a2,a1
    8000133a:	00f406b3          	add	a3,s0,a5
    8000133e:	00f48733          	add	a4,s1,a5
    80001342:	96a6                	add	a3,a3,s1
    80001344:	00074703          	lbu	a4,0(a4)
    80001348:	0006c683          	lbu	a3,0(a3)
    8000134c:	00d7072b          	pl.f	a4,a4,a3
    80001350:	00f606b3          	add	a3,a2,a5
    80001354:	0785                	add	a5,a5,1
    80001356:	00e68023          	sb	a4,0(a3)
    8000135a:	0007871b          	sext.w	a4,a5
    8000135e:	fc874ee3          	blt	a4,s0,8000133a <node_top+0x40>
    80001362:	000b3783          	ld	a5,0(s6)
    80001366:	00178713          	add	a4,a5,1
    8000136a:	00eb3023          	sd	a4,0(s6)
    8000136e:	0007c583          	lbu	a1,0(a5)
    80001372:	4791                	li	a5,4
    80001374:	1cf58963          	beq	a1,a5,80001546 <node_top+0x24c>
    80001378:	00000517          	auipc	a0,0x0
    8000137c:	1e850513          	add	a0,a0,488 # 80001560 <node_top+0x266>
    80001380:	e09fe0ef          	jal	80000188 <printf>
    80001384:	4705                	li	a4,1
    80001386:	4781                	li	a5,0
    80001388:	03575b63          	bge	a4,s5,800013be <node_top+0xc4>
    8000138c:	00f40733          	add	a4,s0,a5
    80001390:	00fa0633          	add	a2,s4,a5
    80001394:	00f486b3          	add	a3,s1,a5
    80001398:	9726                	add	a4,a4,s1
    8000139a:	00064583          	lbu	a1,0(a2)
    8000139e:	0006c683          	lbu	a3,0(a3)
    800013a2:	00074703          	lbu	a4,0(a4)
    800013a6:	76d585ab          	pl3.g	a1,a1,a3,# internal error, undefined modifier (r)
    800013aa:	00fa8733          	add	a4,s5,a5
    800013ae:	9726                	add	a4,a4,s1
    800013b0:	0785                	add	a5,a5,1
    800013b2:	00b70023          	sb	a1,0(a4)
    800013b6:	0007871b          	sext.w	a4,a5
    800013ba:	fc8749e3          	blt	a4,s0,8000138c <node_top+0x92>
    800013be:	000b3783          	ld	a5,0(s6)
    800013c2:	4711                	li	a4,4
    800013c4:	00178693          	add	a3,a5,1
    800013c8:	00db3023          	sd	a3,0(s6)
    800013cc:	0007c583          	lbu	a1,0(a5)
    800013d0:	16e58163          	beq	a1,a4,80001532 <node_top+0x238>
    800013d4:	00000517          	auipc	a0,0x0
    800013d8:	18c50513          	add	a0,a0,396 # 80001560 <node_top+0x266>
    800013dc:	dadfe0ef          	jal	80000188 <printf>
    800013e0:	4685                	li	a3,1
    800013e2:	0356dd63          	bge	a3,s5,8000141c <node_top+0x122>
    800013e6:	47bd                	li	a5,15
    800013e8:	0157d863          	bge	a5,s5,800013f8 <node_top+0xfe>
    800013ec:	008a0733          	add	a4,s4,s0
    800013f0:	00ea67b3          	or	a5,s4,a4
    800013f4:	8b9d                	and	a5,a5,7
    800013f6:	cf8d                	beqz	a5,80001430 <node_top+0x136>
    800013f8:	8752                	mv	a4,s4
    800013fa:	4781                	li	a5,0
    800013fc:	00f406b3          	add	a3,s0,a5
    80001400:	96d2                	add	a3,a3,s4
    80001402:	00074583          	lbu	a1,0(a4)
    80001406:	0006c683          	lbu	a3,0(a3)
    8000140a:	0785                	add	a5,a5,1
    8000140c:	0007861b          	sext.w	a2,a5
    80001410:	8ead                	xor	a3,a3,a1
    80001412:	00d70023          	sb	a3,0(a4)
    80001416:	0705                	add	a4,a4,1
    80001418:	fe8642e3          	blt	a2,s0,800013fc <node_top+0x102>
    8000141c:	70e2                	ld	ra,56(sp)
    8000141e:	7442                	ld	s0,48(sp)
    80001420:	74a2                	ld	s1,40(sp)
    80001422:	7902                	ld	s2,32(sp)
    80001424:	69e2                	ld	s3,24(sp)
    80001426:	6a42                	ld	s4,16(sp)
    80001428:	6aa2                	ld	s5,8(sp)
    8000142a:	6b02                	ld	s6,0(sp)
    8000142c:	6121                	add	sp,sp,64
    8000142e:	8082                	ret
    80001430:	4785                	li	a5,1
    80001432:	1356c263          	blt	a3,s5,80001556 <node_top+0x25c>
    80001436:	0037d59b          	srlw	a1,a5,0x3
    8000143a:	058e                	sll	a1,a1,0x3
    8000143c:	0007851b          	sext.w	a0,a5
    80001440:	95d2                	add	a1,a1,s4
    80001442:	87d2                	mv	a5,s4
    80001444:	6314                	ld	a3,0(a4)
    80001446:	6390                	ld	a2,0(a5)
    80001448:	07a1                	add	a5,a5,8
    8000144a:	0721                	add	a4,a4,8
    8000144c:	8eb1                	xor	a3,a3,a2
    8000144e:	fed7bc23          	sd	a3,-8(a5)
    80001452:	feb799e3          	bne	a5,a1,80001444 <node_top+0x14a>
    80001456:	ff857713          	and	a4,a0,-8
    8000145a:	00757693          	and	a3,a0,7
    8000145e:	87ba                	mv	a5,a4
    80001460:	ded5                	beqz	a3,8000141c <node_top+0x122>
    80001462:	1702                	sll	a4,a4,0x20
    80001464:	9301                	srl	a4,a4,0x20
    80001466:	00f906bb          	addw	a3,s2,a5
    8000146a:	9752                	add	a4,a4,s4
    8000146c:	96d2                	add	a3,a3,s4
    8000146e:	0006c583          	lbu	a1,0(a3)
    80001472:	00074503          	lbu	a0,0(a4)
    80001476:	0017861b          	addw	a2,a5,1
    8000147a:	8da9                	xor	a1,a1,a0
    8000147c:	00b70023          	sb	a1,0(a4)
    80001480:	f8865ee3          	bge	a2,s0,8000141c <node_top+0x122>
    80001484:	00c906bb          	addw	a3,s2,a2
    80001488:	96d2                	add	a3,a3,s4
    8000148a:	9652                	add	a2,a2,s4
    8000148c:	0006c583          	lbu	a1,0(a3)
    80001490:	00064503          	lbu	a0,0(a2)
    80001494:	0027869b          	addw	a3,a5,2
    80001498:	8da9                	xor	a1,a1,a0
    8000149a:	00b60023          	sb	a1,0(a2)
    8000149e:	f686dfe3          	bge	a3,s0,8000141c <node_top+0x122>
    800014a2:	00d9073b          	addw	a4,s2,a3
    800014a6:	9752                	add	a4,a4,s4
    800014a8:	96d2                	add	a3,a3,s4
    800014aa:	00074583          	lbu	a1,0(a4)
    800014ae:	0006c503          	lbu	a0,0(a3)
    800014b2:	0037861b          	addw	a2,a5,3
    800014b6:	8da9                	xor	a1,a1,a0
    800014b8:	00b68023          	sb	a1,0(a3)
    800014bc:	f68650e3          	bge	a2,s0,8000141c <node_top+0x122>
    800014c0:	00c9073b          	addw	a4,s2,a2
    800014c4:	9752                	add	a4,a4,s4
    800014c6:	9652                	add	a2,a2,s4
    800014c8:	00074583          	lbu	a1,0(a4)
    800014cc:	00064503          	lbu	a0,0(a2)
    800014d0:	0047869b          	addw	a3,a5,4
    800014d4:	8da9                	xor	a1,a1,a0
    800014d6:	00b60023          	sb	a1,0(a2)
    800014da:	f486d1e3          	bge	a3,s0,8000141c <node_top+0x122>
    800014de:	00d9073b          	addw	a4,s2,a3
    800014e2:	9752                	add	a4,a4,s4
    800014e4:	96d2                	add	a3,a3,s4
    800014e6:	00074583          	lbu	a1,0(a4)
    800014ea:	0006c503          	lbu	a0,0(a3)
    800014ee:	0057861b          	addw	a2,a5,5
    800014f2:	8da9                	xor	a1,a1,a0
    800014f4:	00b68023          	sb	a1,0(a3)
    800014f8:	f28652e3          	bge	a2,s0,8000141c <node_top+0x122>
    800014fc:	00c9073b          	addw	a4,s2,a2
    80001500:	9752                	add	a4,a4,s4
    80001502:	9652                	add	a2,a2,s4
    80001504:	00074683          	lbu	a3,0(a4)
    80001508:	00064583          	lbu	a1,0(a2)
    8000150c:	0067871b          	addw	a4,a5,6
    80001510:	8ead                	xor	a3,a3,a1
    80001512:	00d60023          	sb	a3,0(a2)
    80001516:	f08753e3          	bge	a4,s0,8000141c <node_top+0x122>
    8000151a:	00e9093b          	addw	s2,s2,a4
    8000151e:	9952                	add	s2,s2,s4
    80001520:	9752                	add	a4,a4,s4
    80001522:	00094783          	lbu	a5,0(s2)
    80001526:	00074683          	lbu	a3,0(a4)
    8000152a:	8fb5                	xor	a5,a5,a3
    8000152c:	00f70023          	sb	a5,0(a4)
    80001530:	b5f5                	j	8000141c <node_top+0x122>
    80001532:	008986b3          	add	a3,s3,s0
    80001536:	8622                	mv	a2,s0
    80001538:	015485b3          	add	a1,s1,s5
    8000153c:	008a0533          	add	a0,s4,s0
    80001540:	838ff0ef          	jal	80000578 <node>
    80001544:	bd71                	j	800013e0 <node_top+0xe6>
    80001546:	86ce                	mv	a3,s3
    80001548:	8622                	mv	a2,s0
    8000154a:	015485b3          	add	a1,s1,s5
    8000154e:	8552                	mv	a0,s4
    80001550:	828ff0ef          	jal	80000578 <node>
    80001554:	bd05                	j	80001384 <node_top+0x8a>
    80001556:	87ca                	mv	a5,s2
    80001558:	bdf9                	j	80001436 <node_top+0x13c>
